ccopy_reg
_reconstructor
p0
(cdata_management
Data_Study
p1
c__builtin__
object
p2
Ntp3
Rp4
(dp5
S'Angle'
p6
(lp7
F62.50337424849359
aF152.57142612675054
aF153.9005900649947
aF153.9005900649947
aF153.9005900649947
aF158.08991536935017
aF161.01853990805157
aF161.01853990805157
aF161.01853990805157
aF158.96270060076148
aF155.80729449599306
aF121.32725277260228
aF125.42397790297399
aF125.42397790297399
aF129.34652579272324
aF129.34652579272324
aF129.34652579272324
aF129.34652579272324
aF158.4469361775717
aF160.198999754761
aF160.198999754761
aF159.86090981910425
aF152.85179009281606
aF152.85179009281606
aF149.78691346870386
aF149.78691346870386
aF145.03684960009235
aF136.71919101661098
aF134.98545597936678
aF131.43130933218123
aF131.43130933218123
aF131.43130933218123
aF131.43130933218123
aF131.43130933218123
aF129.60551648120062
aF129.60551648120062
aF129.60551648120062
aF101.16602283134465
aF101.16602283134465
aF44.06205164062158
aF85.15875687812772
aF127.39546314524638
aF167.94010092172059
aF57.26747313158717
aF66.36426818825515
aF154.9642817738605
aF80.23108162549362
aF80.23108162549362
aF71.90047885531068
aF69.95284702719606
aF56.38567394011217
aF159.79363818421476
aF159.79363818421476
aF159.79363818421476
aF164.83243352085486
aF148.65587015486378
aF148.65587015486378
aF146.97651938948587
aF146.97651938948587
aF145.29831188685878
aF145.29831188685878
aF135.24565344407284
aF135.24565344407284
aF64.38094422743526
aF64.38094422743526
aF116.2794577014091
aF150.9109757213598
aF76.75493731384292
aF95.29813077873257
aF95.29813077873257
aF110.92741442420214
aF116.98278553811858
aF116.98278553811858
aF120.19689497343377
aF123.54267298632965
aF123.54267298632965
aF134.4096938298507
aF138.31357220418457
aF160.3882555671326
aF150.71340684814493
aF131.45239019683495
aF110.48467624114164
asS'Flare_properties'
p8
(dp9
S'RHESSI_total_counts'
p10
(lp11
S'0.0'
p12
aS'nan'
p13
aS'0.0'
p14
aS'0.0'
p15
aS'0.0'
p16
aS'nan'
p17
aS'0.0'
p18
aS'0.0'
p19
aS'0.0'
p20
aS'nan'
p21
aS'nan'
p22
aS'nan'
p23
aS'nan'
p24
aS'nan'
p25
aS'0.0'
p26
aS'0.0'
p27
aS'nan'
p28
aS'nan'
p29
aS'0.0'
p30
aS'nan'
p31
aS'nan'
p32
aS'nan'
p33
aS'nan'
p34
aS'0.0'
p35
aS'nan'
p36
aS'nan'
p37
aS'nan'
p38
aS'nan'
p39
aS'nan'
p40
aS'nan'
p41
aS'nan'
p42
aS'nan'
p43
aS'nan'
p44
aS'nan'
p45
aS'nan'
p46
aS'nan'
p47
aS'nan'
p48
aS'nan'
p49
aS'nan'
p50
aS'nan'
p51
aS'0.0'
p52
aS'0.0'
p53
aS'nan'
p54
aS'nan'
p55
aS'nan'
p56
aS'nan'
p57
aS'0.0'
p58
aS'0.0'
p59
aS'0.0'
p60
aS'nan'
p61
aS'0.0'
p62
aS'0.0'
p63
aS'0.0'
p64
aS'0.0'
p65
aS'0.0'
p66
aS'nan'
p67
aS'nan'
p68
aS'0.0'
p69
aS'nan'
p70
aS'nan'
p71
aS'0.0'
p72
aS'0.0'
p73
aS'0.0'
p74
aS'0.0'
p75
aS'0.0'
p76
aS'nan'
p77
aS'0.0'
p78
aS'0.0'
p79
aS'nan'
p80
aS'nan'
p81
aS'0.0'
p82
aS'0.0'
p83
aS'0.0'
p84
aS'0.0'
p85
aS'nan'
p86
aS'nan'
p87
aS'nan'
p88
aS'nan'
p89
aS'nan'
p90
aS'nan'
p91
aS'nan'
p92
aS'nan'
p93
asS'Messenger_GOES'
p94
(lp95
S'M1.9'
p96
aS'B8.4'
p97
aS'C2.3'
p98
aS'C2.3'
p99
aS'C2.3'
p100
aS'C1.3'
p101
aS'C4.3'
p102
aS'C4.3'
p103
aS'C4.3'
p104
aS'C1.0'
p105
aS'C1.2'
p106
aS'B4.7'
p107
aS'C3.3'
p108
aS'C1.8'
p109
aS'C1.6'
p110
aS'C1.6'
p111
aS'B4.3'
p112
aS'B8.6'
p113
aS'C1.5'
p114
aS'C1.1'
p115
aS'C3.7'
p116
aS'C1.6'
p117
aS'B8.1'
p118
aS'C1.7'
p119
aS'C1.1'
p120
aS'B5.9'
p121
aS'B4.7'
p122
aS'C3.6'
p123
aS'C1.4'
p124
aS'C3.9'
p125
aS'C6.0'
p126
aS'C2.4'
p127
aS'C2.9'
p128
aS'C1.1'
p129
aS'C2.0'
p130
aS'B7.2'
p131
aS'C3.3'
p132
aS'B9.2'
p133
aS'C1.5'
p134
aS'B6.0'
p135
aS'C2.1'
p136
aS'B5.8'
p137
aS'B9.4'
p138
aS'C1.3'
p139
aS'M1.2'
p140
aS'B4.6'
p141
aS'B9.4'
p142
aS'B9.4'
p143
aS'B4.4'
p144
aS'C2.5'
p145
aS'C2.0'
p146
aS'C9.9'
p147
aS'C9.9'
p148
aS'C9.9'
p149
aS'B5.1'
p150
aS'C1.1'
p151
aS'C1.1'
p152
aS'C2.7'
p153
aS'C2.7'
p154
aS'C2.2'
p155
aS'C1.5'
p156
aS'C8.8'
p157
aS'C8.8'
p158
aS'B6.1'
p159
aS'B6.1'
p160
aS'B4.5'
p161
aS'C2.5'
p162
aS'B4.8'
p163
aS'C3.0'
p164
aS'C1.8'
p165
aS'B5.4'
p166
aS'B5.8'
p167
aS'B8.7'
p168
aS'B9.0'
p169
aS'B5.0'
p170
aS'C1.7'
p171
aS'B6.3'
p172
aS'B8.3'
p173
aS'B4.0'
p174
aS'B9.8'
p175
aS'C3.2'
p176
aS'B3.0'
p177
asS'GOES_GOES'
p178
(lp179
S'A7.4'
p180
aS'A4.6'
p181
aS'A2.9'
p182
aS'A2.9'
p183
aS'A2.9'
p184
aS'A1.8'
p185
aS'A2.5'
p186
aS'A2.5'
p187
aS'A2.5'
p188
aS'A4.2'
p189
aS'B1.0'
p190
aS'A1.4'
p191
aS'A1.6'
p192
aS'A1.9'
p193
aS'A5.2'
p194
aS'A5.2'
p195
aS'A1.1'
p196
aS'A1.4'
p197
aS'A2.4'
p198
aS'A1.4'
p199
aS'A1.2'
p200
aS'A2.6'
p201
aS'A6.1'
p202
aS'A9.1'
p203
aS'A1.2'
p204
aS'A2.4'
p205
aS'A1.3'
p206
aS'A2.4'
p207
aS'A1.6'
p208
aS'A2.4'
p209
aS'A2.1'
p210
aS'A6.8'
p211
aS'A1.3'
p212
aS'A7.9'
p213
aS'A2.8'
p214
aS'A3.6'
p215
aS'A5.0'
p216
aS'A4.4'
p217
aS'A1.5'
p218
aS'A1.1'
p219
aS'A4.4'
p220
aS'A2.7'
p221
aS'A5.5'
p222
aS'A7.6'
p223
aS'A1.2'
p224
aS'A1.6'
p225
aS'A1.3'
p226
aS'A1.3'
p227
aS'A3.2'
p228
aS'A1.6'
p229
aS'A5.2'
p230
aS'A1.4'
p231
aS'A1.4'
p232
aS'A1.4'
p233
aS'A3.7'
p234
aS'A5.7'
p235
aS'A1.2'
p236
aS'A1.1'
p237
aS'A1.3'
p238
aS'A1.4'
p239
aS'A3.0'
p240
aS'A6.2'
p241
aS'A6.2'
p242
aS'A1.1'
p243
aS'A1.1'
p244
aS'A2.1'
p245
aS'B1.1'
p246
aS'A3.9'
p247
aS'A3.8'
p248
aS'A2.5'
p249
aS'A5.3'
p250
aS'A2.4'
p251
aS'A1.5'
p252
aS'A2.9'
p253
aS'A4.7'
p254
aS'A2.7'
p255
aS'A3.5'
p256
aS'A7.0'
p257
aS'A1.1'
p258
aS'A1.8'
p259
aS'A1.7'
p260
aS'A1.9'
p261
asS'Messenger_T'
p262
(lp263
F2.33635
aF1.68957
aF1.73323
aF1.73323
aF1.73323
aF1.70976
aF1.84463
aF1.84463
aF1.84463
aF1.78863
aF1.8418700000000001
aF1.85513
aF1.84791
aF1.8962700000000001
aF1.69287
aF1.69287
aF1.71109
aF2.73795
aF2.315413
aF3.54998
aF2.463949
aF1.8441800000000002
aF1.5903800000000001
aF3.82984
aF1.80874
aF2.002585
aF1.68395
aF4.6343
aF1.90508
aF1.9742300000000002
aF2.21419
aF2.0091799999999997
aF2.1789199999999997
aF2.36759
aF1.84574
aF1.72778
aF1.89879
aF2.35053
aF2.377422
aF2.006163
aF1.688
aF2.207568
aF1.9837790000000002
aF1.74214
aF2.26197
aF1.73447
aF1.66452
aF1.66452
aF2.2640350000000002
aF1.92385
aF1.7469700000000001
aF2.18125
aF2.18125
aF2.18125
aF1.79756
aF3.91584
aF3.21569
aF4.66205
aF1.94785
aF2.16206
aF1.919
aF2.0709
aF2.0709
aF2.174
aF2.174
aF2.388355
aF4.91625
aF1.63226
aF1.98316
aF1.82555
aF2.222407
aF1.72113
aF1.72464
aF1.90279
aF1.81078
aF2.08721
aF2.5754900000000003
aF2.34997
aF1.53375
aF1.94753
aF1.81294
aF1.86527
asS'Messenger_EM1'
p264
(lp265
F3.44491
aF0.489847
aF0.7897179999999999
aF0.7897179999999999
aF0.7897179999999999
aF0.583326
aF1.0475889999999999
aF1.0475889999999999
aF1.0475889999999999
aF0.497421
aF0.504207
aF0.1610954
aF0.869972
aF0.57996
aF0.66186
aF0.66186
aF0.1940151
aF0.20575986000000002
aF0.31864066999999996
aF0.35899002070439995
aF0.54898923
aF0.5738570000000001
aF0.5258579999999999
aF0.3083110031699
aF0.499038
aF0.16226282
aF0.40829099999999996
aF0.6123200133743
aF0.527135
aF0.8614660000000001
aF0.9395519999999999
aF0.629168
aF0.620026
aF0.27104788
aF0.65212
aF0.45184599999999997
aF0.8293200000000001
aF0.26307511
aF0.2146654
aF0.1513334
aF0.770276
aF0.1158571
aF0.2792167
aF0.565002
aF1.48013
aF0.3949919
aF0.525119
aF0.525119
aF0.0893877
aF0.6812940000000001
aF0.7087129999999999
aF1.39518
aF1.39518
aF1.39518
aF0.3952581
aF0.1854480031699
aF0.190420282
aF0.4392660031699
aF0.696825
aF0.547914
aF0.53798
aF1.41146
aF1.41146
aF0.1033813
aF0.1033813
aF0.0744929
aF0.3617220010305
aF0.422776
aF0.7262759999999999
aF0.625649
aF0.1054828
aF0.423674
aF0.4851
aF0.442086
aF0.3913679
aF0.511279
aF0.17153639
aF0.37632012600000003
aF0.428829
aF0.445212
aF0.883025
aF0.10919499999999999
asS'RHESSI_GOES'
p266
(lp267
S'C2.0*'
p268
aS'nan'
p269
aS'B2.2'
p270
aS'B7.8'
p271
aS'nan'
p272
aS'nan'
p273
aS'B2.7'
p274
aS'C1.0'
p275
aS'C1.1*'
p276
aS'nan'
p277
aS'nan'
p278
aS'nan'
p279
aS'nan'
p280
aS'nan'
p281
aS'nan'
p282
aS'C2.2'
p283
aS'nan'
p284
aS'nan'
p285
aS'B5.3'
p286
aS'nan'
p287
aS'nan'
p288
aS'nan'
p289
aS'nan'
p290
aS'C3.3'
p291
aS'nan'
p292
aS'nan'
p293
aS'nan'
p294
aS'nan'
p295
aS'nan'
p296
aS'nan'
p297
aS'nan'
p298
aS'nan'
p299
aS'nan'
p300
aS'nan'
p301
aS'nan'
p302
aS'nan'
p303
aS'nan'
p304
aS'nan'
p305
aS'nan'
p306
aS'nan'
p307
aS'nan'
p308
aS'B1.1'
p309
aS'nan'
p310
aS'nan'
p311
aS'nan'
p312
aS'nan'
p313
aS'C1.3*'
p314
aS'nan'
p315
aS'C1.4'
p316
aS'nan'
p317
aS'nan'
p318
aS'C2.6'
p319
aS'nan'
p320
aS'nan'
p321
aS'nan'
p322
aS'nan'
p323
aS'nan'
p324
aS'nan'
p325
aS'nan'
p326
aS'nan'
p327
aS'nan'
p328
aS'C1.0'
p329
aS'nan'
p330
aS'nan'
p331
aS'nan'
p332
aS'nan'
p333
aS'nan'
p334
aS'C5.5'
p335
aS'nan'
p336
aS'nan'
p337
aS'nan'
p338
aS'C6.4'
p339
aS'B8.5'
p340
aS'C2.2'
p341
aS'nan'
p342
aS'nan'
p343
aS'nan'
p344
aS'nan'
p345
aS'nan'
p346
aS'nan'
p347
aS'nan'
p348
aS'nan'
p349
asS'source_vis'
p350
(lp351
S'nan'
p352
aS'nan'
p353
aS'nan'
p354
aS'nan'
p355
aS'nan'
p356
aS'nan'
p357
aS'nan'
p358
aS'nan'
p359
aS'nan'
p360
aS'nan'
p361
aS'nan'
p362
aS'nan'
p363
aS'nan'
p364
aS'nan'
p365
aS'nan'
p366
aS'nan'
p367
aS'nan'
p368
aS'nan'
p369
aS'nan'
p370
aS'nan'
p371
aS'nan'
p372
aS'nan'
p373
aS'nan'
p374
aS'nan'
p375
aS'nan'
p376
aS'nan'
p377
aS'nan'
p378
aS'nan'
p379
aS'nan'
p380
aS'nan'
p381
aS'nan'
p382
aS'nan'
p383
aS'nan'
p384
aS'nan'
p385
aS'nan'
p386
aS'nan'
p387
aS'nan'
p388
aS'nan'
p389
aS'nan'
p390
aS'nan'
p391
aS'nan'
p392
aS'nan'
p393
aS'nan'
p394
aS'nan'
p395
aS'nan'
p396
aS'nan'
p397
aS'nan'
p398
aS'nan'
p399
aS'nan'
p400
aS'nan'
p401
aS'nan'
p402
aS'nan'
p403
aS'nan'
p404
aS'nan'
p405
aS'nan'
p406
aS'nan'
p407
aS'nan'
p408
aS'nan'
p409
aS'nan'
p410
aS'nan'
p411
aS'nan'
p412
aS'nan'
p413
aS'nan'
p414
aS'nan'
p415
aS'nan'
p416
aS'nan'
p417
aS'nan'
p418
aS'nan'
p419
aS'nan'
p420
aS'nan'
p421
aS'nan'
p422
aS'nan'
p423
aS'nan'
p424
aS'nan'
p425
aS'nan'
p426
aS'nan'
p427
aS'nan'
p428
aS'nan'
p429
aS'nan'
p430
aS'nan'
p431
aS'nan'
p432
aS'nan'
p433
asS'Messenger_total_counts'
p434
(lp435
S'0.0'
p436
aS'nan'
p437
aS'0.0'
p438
aS'0.0'
p439
aS'0.0'
p440
aS'nan'
p441
aS'0.0'
p442
aS'0.0'
p443
aS'0.0'
p444
aS'nan'
p445
aS'nan'
p446
aS'nan'
p447
aS'nan'
p448
aS'nan'
p449
aS'0.0'
p450
aS'0.0'
p451
aS'nan'
p452
aS'nan'
p453
aS'0.0'
p454
aS'nan'
p455
aS'nan'
p456
aS'nan'
p457
aS'nan'
p458
aS'0.0'
p459
aS'nan'
p460
aS'nan'
p461
aS'nan'
p462
aS'nan'
p463
aS'nan'
p464
aS'nan'
p465
aS'nan'
p466
aS'nan'
p467
aS'nan'
p468
aS'nan'
p469
aS'nan'
p470
aS'nan'
p471
aS'nan'
p472
aS'nan'
p473
aS'nan'
p474
aS'nan'
p475
aS'0.0'
p476
aS'0.0'
p477
aS'nan'
p478
aS'nan'
p479
aS'nan'
p480
aS'nan'
p481
aS'0.0'
p482
aS'0.0'
p483
aS'0.0'
p484
aS'nan'
p485
aS'0.0'
p486
aS'0.0'
p487
aS'0.0'
p488
aS'0.0'
p489
aS'0.0'
p490
aS'nan'
p491
aS'nan'
p492
aS'0.0'
p493
aS'nan'
p494
aS'nan'
p495
aS'0.0'
p496
aS'0.0'
p497
aS'0.0'
p498
aS'0.0'
p499
aS'0.0'
p500
aS'nan'
p501
aS'0.0'
p502
aS'0.0'
p503
aS'nan'
p504
aS'nan'
p505
aS'0.0'
p506
aS'0.0'
p507
aS'0.0'
p508
aS'0.0'
p509
aS'nan'
p510
aS'nan'
p511
aS'nan'
p512
aS'nan'
p513
aS'nan'
p514
aS'nan'
p515
aS'nan'
p516
aS'nan'
p517
assS'Notes'
p518
(lp519
F2.64647
aF2.29124
aF2.01643
aF2.01643
aF2.01643
aF1.0312
aF4.51013
aF4.51013
aF4.51013
aF1.34058
aF2.203
aF1.41022
aF3.19428
aF1.93872
aF3.70903
aF3.70903
aF1.33233
aF1.57039
aF1.11071
aF1.21997
aF1.32229
aF1.28754
aF1.65355
aF1.6652
aF2.13697
aF1.28188
aF1.17489
aF2.93592
aF1.43025
aF1.37849
aF1.76005
aF1.30904
aF2.09881
aF1.23359
aF1.31908
aF1.30972
aF3.36121
aF1.10778
aF1.21435
aF1.18646
aF1.23554
aF1.0502
aF1.07334
aF1.36354
aF3.97429
aF3.67172
aF1.48088
aF1.48088
aF1.52143
aF2.30614
aF2.51515
aF1.95606
aF1.95606
aF1.95606
aF1.11475
aF1.08284
aF1.82689
aF1.73534
aF0.965185
aF1.35166
aF1.90429
aF2.24529
aF2.24529
aF1.13221
aF1.13221
aF1.10281
aF1.91941
aF1.32086
aF1.59269
aF1.81436
aF1.52166
aF1.73726
aF2.6447
aF1.50079
aF1.70033
aF3.32865
aF1.27353
aF1.34226
aF1.72963
aF3.84455
aF5.03976
aF1.94597
asS'Data_properties'
p520
(dp521
S'QL_images'
p522
(lp523
S'nan'
p524
aS'nan'
p525
aS'nan'
p526
aS'nan'
p527
aS'nan'
p528
aS'nan'
p529
aS'nan'
p530
aS'nan'
p531
aS'nan'
p532
aS'nan'
p533
aS'nan'
p534
aS'nan'
p535
aS'nan'
p536
aS'nan'
p537
aS'nan'
p538
aS'nan'
p539
aS'nan'
p540
aS'nan'
p541
aS'nan'
p542
aS'nan'
p543
aS'nan'
p544
aS'nan'
p545
aS'nan'
p546
aS'nan'
p547
aS'nan'
p548
aS'nan'
p549
aS'nan'
p550
aS'nan'
p551
aS'nan'
p552
aS'nan'
p553
aS'nan'
p554
aS'nan'
p555
aS'nan'
p556
aS'nan'
p557
aS'nan'
p558
aS'nan'
p559
aS'nan'
p560
aS'nan'
p561
aS'nan'
p562
aS'nan'
p563
aS'nan'
p564
aS'nan'
p565
aS'nan'
p566
aS'nan'
p567
aS'nan'
p568
aS'nan'
p569
aS'nan'
p570
aS'nan'
p571
aS'nan'
p572
aS'nan'
p573
aS'nan'
p574
aS'nan'
p575
aS'nan'
p576
aS'nan'
p577
aS'nan'
p578
aS'nan'
p579
aS'nan'
p580
aS'nan'
p581
aS'nan'
p582
aS'nan'
p583
aS'nan'
p584
aS'nan'
p585
aS'nan'
p586
aS'nan'
p587
aS'nan'
p588
aS'nan'
p589
aS'nan'
p590
aS'nan'
p591
aS'nan'
p592
aS'nan'
p593
aS'nan'
p594
aS'nan'
p595
aS'nan'
p596
aS'nan'
p597
aS'nan'
p598
aS'nan'
p599
aS'nan'
p600
aS'nan'
p601
aS'nan'
p602
aS'nan'
p603
aS'nan'
p604
aS'nan'
p605
asS'Messenger_data_path'
p606
(lp607
S'/Users/wheatley/Documents/Solar/occulted_flares/data/dat_files'
p608
aS'nan'
p609
aS'/Users/wheatley/Documents/Solar/occulted_flares/data/dat_files'
p610
aS'/Users/wheatley/Documents/Solar/occulted_flares/data/dat_files'
p611
aS'/Users/wheatley/Documents/Solar/occulted_flares/data/dat_files'
p612
aS'nan'
p613
aS'/Users/wheatley/Documents/Solar/occulted_flares/data/dat_files'
p614
aS'/Users/wheatley/Documents/Solar/occulted_flares/data/dat_files'
p615
aS'/Users/wheatley/Documents/Solar/occulted_flares/data/dat_files'
p616
aS'nan'
p617
aS'nan'
p618
aS'nan'
p619
aS'nan'
p620
aS'nan'
p621
aS'/Users/wheatley/Documents/Solar/occulted_flares/data/dat_files'
p622
aS'/Users/wheatley/Documents/Solar/occulted_flares/data/dat_files'
p623
aS'nan'
p624
aS'nan'
p625
aS'/Users/wheatley/Documents/Solar/occulted_flares/data/dat_files'
p626
aS'nan'
p627
aS'nan'
p628
aS'nan'
p629
aS'nan'
p630
aS'/Users/wheatley/Documents/Solar/occulted_flares/data/dat_files'
p631
aS'nan'
p632
aS'nan'
p633
aS'nan'
p634
aS'nan'
p635
aS'nan'
p636
aS'nan'
p637
aS'nan'
p638
aS'nan'
p639
aS'nan'
p640
aS'nan'
p641
aS'nan'
p642
aS'nan'
p643
aS'nan'
p644
aS'nan'
p645
aS'nan'
p646
aS'nan'
p647
aS'/Users/wheatley/Documents/Solar/occulted_flares/data/dat_files'
p648
aS'/Users/wheatley/Documents/Solar/occulted_flares/data/dat_files'
p649
aS'nan'
p650
aS'nan'
p651
aS'nan'
p652
aS'nan'
p653
aS'/Users/wheatley/Documents/Solar/occulted_flares/data/dat_files'
p654
aS'/Users/wheatley/Documents/Solar/occulted_flares/data/dat_files'
p655
aS'/Users/wheatley/Documents/Solar/occulted_flares/data/dat_files'
p656
aS'nan'
p657
aS'/Users/wheatley/Documents/Solar/occulted_flares/data/dat_files'
p658
aS'/Users/wheatley/Documents/Solar/occulted_flares/data/dat_files'
p659
aS'/Users/wheatley/Documents/Solar/occulted_flares/data/dat_files'
p660
aS'/Users/wheatley/Documents/Solar/occulted_flares/data/dat_files'
p661
aS'/Users/wheatley/Documents/Solar/occulted_flares/data/dat_files'
p662
aS'nan'
p663
aS'nan'
p664
aS'/Users/wheatley/Documents/Solar/occulted_flares/data/dat_files'
p665
aS'nan'
p666
aS'nan'
p667
aS'/Users/wheatley/Documents/Solar/occulted_flares/data/dat_files'
p668
aS'/Users/wheatley/Documents/Solar/occulted_flares/data/dat_files'
p669
aS'/Users/wheatley/Documents/Solar/occulted_flares/data/dat_files'
p670
aS'/Users/wheatley/Documents/Solar/occulted_flares/data/dat_files'
p671
aS'/Users/wheatley/Documents/Solar/occulted_flares/data/dat_files'
p672
aS'nan'
p673
aS'/Users/wheatley/Documents/Solar/occulted_flares/data/dat_files'
p674
aS'/Users/wheatley/Documents/Solar/occulted_flares/data/dat_files'
p675
aS'nan'
p676
aS'nan'
p677
aS'/Users/wheatley/Documents/Solar/occulted_flares/data/dat_files'
p678
aS'/Users/wheatley/Documents/Solar/occulted_flares/data/dat_files'
p679
aS'/Users/wheatley/Documents/Solar/occulted_flares/data/dat_files'
p680
aS'/Users/wheatley/Documents/Solar/occulted_flares/data/dat_files'
p681
aS'nan'
p682
aS'nan'
p683
aS'nan'
p684
aS'nan'
p685
aS'nan'
p686
aS'nan'
p687
aS'nan'
p688
aS'nan'
p689
asS'csv_name'
p690
(lp691
S'full_short_2T_abund.csv'
p692
aS'full_short_2T_abund.csv'
p693
aS'full_short_2T_abund.csv'
p694
aS'full_short_2T_abund.csv'
p695
aS'full_short_2T_abund.csv'
p696
aS'full_short_2T_abund.csv'
p697
aS'full_short_2T_abund.csv'
p698
aS'full_short_2T_abund.csv'
p699
aS'full_short_2T_abund.csv'
p700
aS'full_short_2T_abund.csv'
p701
aS'full_short_2T_abund.csv'
p702
aS'full_short_2T_abund.csv'
p703
aS'full_short_2T_abund.csv'
p704
aS'full_short_2T_abund.csv'
p705
aS'full_short_2T_abund.csv'
p706
aS'full_short_2T_abund.csv'
p707
aS'full_short_2T_abund.csv'
p708
aS'full_short_2T_abund.csv'
p709
aS'full_short_2T_abund.csv'
p710
aS'full_short_2T_abund.csv'
p711
aS'full_short_2T_abund.csv'
p712
aS'full_short_2T_abund.csv'
p713
aS'full_short_2T_abund.csv'
p714
aS'full_short_2T_abund.csv'
p715
aS'full_short_2T_abund.csv'
p716
aS'full_short_2T_abund.csv'
p717
aS'full_short_2T_abund.csv'
p718
aS'full_short_2T_abund.csv'
p719
aS'full_short_2T_abund.csv'
p720
aS'full_short_2T_abund.csv'
p721
aS'full_short_2T_abund.csv'
p722
aS'full_short_2T_abund.csv'
p723
aS'full_short_2T_abund.csv'
p724
aS'full_short_2T_abund.csv'
p725
aS'full_short_2T_abund.csv'
p726
aS'full_short_2T_abund.csv'
p727
aS'full_short_2T_abund.csv'
p728
aS'full_short_2T_abund.csv'
p729
aS'full_short_2T_abund.csv'
p730
aS'full_short_2T_abund.csv'
p731
aS'full_short_2T_abund.csv'
p732
aS'full_short_2T_abund.csv'
p733
aS'full_short_2T_abund.csv'
p734
aS'full_short_2T_abund.csv'
p735
aS'full_short_2T_abund.csv'
p736
aS'full_short_2T_abund.csv'
p737
aS'full_short_2T_abund.csv'
p738
aS'full_short_2T_abund.csv'
p739
aS'full_short_2T_abund.csv'
p740
aS'full_short_2T_abund.csv'
p741
aS'full_short_2T_abund.csv'
p742
aS'full_short_2T_abund.csv'
p743
aS'full_short_2T_abund.csv'
p744
aS'full_short_2T_abund.csv'
p745
aS'full_short_2T_abund.csv'
p746
aS'full_short_2T_abund.csv'
p747
aS'full_short_2T_abund.csv'
p748
aS'full_short_2T_abund.csv'
p749
aS'full_short_2T_abund.csv'
p750
aS'full_short_2T_abund.csv'
p751
aS'full_short_2T_abund.csv'
p752
aS'full_short_2T_abund.csv'
p753
aS'full_short_2T_abund.csv'
p754
aS'full_short_2T_abund.csv'
p755
aS'full_short_2T_abund.csv'
p756
aS'full_short_2T_abund.csv'
p757
aS'full_short_2T_abund.csv'
p758
aS'full_short_2T_abund.csv'
p759
aS'full_short_2T_abund.csv'
p760
aS'full_short_2T_abund.csv'
p761
aS'full_short_2T_abund.csv'
p762
aS'full_short_2T_abund.csv'
p763
aS'full_short_2T_abund.csv'
p764
aS'full_short_2T_abund.csv'
p765
aS'full_short_2T_abund.csv'
p766
aS'full_short_2T_abund.csv'
p767
aS'full_short_2T_abund.csv'
p768
aS'full_short_2T_abund.csv'
p769
aS'full_short_2T_abund.csv'
p770
aS'full_short_2T_abund.csv'
p771
aS'full_short_2T_abund.csv'
p772
aS'full_short_2T_abund.csv'
p773
asS'RHESSI_data_path'
p774
(lp775
S'/Users/wheatley/Documents/Solar/occulted_flares/data/'
p776
aS'nan'
p777
aS'/Users/wheatley/Documents/Solar/occulted_flares/data/'
p778
aS'/Users/wheatley/Documents/Solar/occulted_flares/data/'
p779
aS'/Users/wheatley/Documents/Solar/occulted_flares/data/'
p780
aS'nan'
p781
aS'/Users/wheatley/Documents/Solar/occulted_flares/data/'
p782
aS'/Users/wheatley/Documents/Solar/occulted_flares/data/'
p783
aS'/Users/wheatley/Documents/Solar/occulted_flares/data/'
p784
aS'nan'
p785
aS'nan'
p786
aS'nan'
p787
aS'nan'
p788
aS'nan'
p789
aS'/Users/wheatley/Documents/Solar/occulted_flares/data/'
p790
aS'/Users/wheatley/Documents/Solar/occulted_flares/data/'
p791
aS'nan'
p792
aS'nan'
p793
aS'/Users/wheatley/Documents/Solar/occulted_flares/data/'
p794
aS'nan'
p795
aS'nan'
p796
aS'nan'
p797
aS'nan'
p798
aS'/Users/wheatley/Documents/Solar/occulted_flares/data/'
p799
aS'nan'
p800
aS'nan'
p801
aS'nan'
p802
aS'nan'
p803
aS'nan'
p804
aS'nan'
p805
aS'nan'
p806
aS'nan'
p807
aS'nan'
p808
aS'nan'
p809
aS'nan'
p810
aS'nan'
p811
aS'nan'
p812
aS'nan'
p813
aS'nan'
p814
aS'nan'
p815
aS'/Users/wheatley/Documents/Solar/occulted_flares/data/'
p816
aS'/Users/wheatley/Documents/Solar/occulted_flares/data/'
p817
aS'nan'
p818
aS'nan'
p819
aS'nan'
p820
aS'nan'
p821
aS'/Users/wheatley/Documents/Solar/occulted_flares/data/'
p822
aS'/Users/wheatley/Documents/Solar/occulted_flares/data/'
p823
aS'/Users/wheatley/Documents/Solar/occulted_flares/data/'
p824
aS'nan'
p825
aS'/Users/wheatley/Documents/Solar/occulted_flares/data/'
p826
aS'/Users/wheatley/Documents/Solar/occulted_flares/data/'
p827
aS'/Users/wheatley/Documents/Solar/occulted_flares/data/'
p828
aS'/Users/wheatley/Documents/Solar/occulted_flares/data/'
p829
aS'/Users/wheatley/Documents/Solar/occulted_flares/data/'
p830
aS'nan'
p831
aS'nan'
p832
aS'/Users/wheatley/Documents/Solar/occulted_flares/data/'
p833
aS'nan'
p834
aS'nan'
p835
aS'/Users/wheatley/Documents/Solar/occulted_flares/data/'
p836
aS'/Users/wheatley/Documents/Solar/occulted_flares/data/'
p837
aS'/Users/wheatley/Documents/Solar/occulted_flares/data/'
p838
aS'/Users/wheatley/Documents/Solar/occulted_flares/data/'
p839
aS'/Users/wheatley/Documents/Solar/occulted_flares/data/'
p840
aS'nan'
p841
aS'/Users/wheatley/Documents/Solar/occulted_flares/data/'
p842
aS'/Users/wheatley/Documents/Solar/occulted_flares/data/'
p843
aS'nan'
p844
aS'nan'
p845
aS'/Users/wheatley/Documents/Solar/occulted_flares/data/'
p846
aS'/Users/wheatley/Documents/Solar/occulted_flares/data/'
p847
aS'/Users/wheatley/Documents/Solar/occulted_flares/data/'
p848
aS'/Users/wheatley/Documents/Solar/occulted_flares/data/'
p849
aS'nan'
p850
aS'nan'
p851
aS'nan'
p852
aS'nan'
p853
aS'nan'
p854
aS'nan'
p855
aS'nan'
p856
aS'nan'
p857
asS'RHESSI_browser_urls'
p858
(lp859
S'nan'
p860
aS'nan'
p861
aS'nan'
p862
aS'nan'
p863
aS'nan'
p864
aS'nan'
p865
aS'nan'
p866
aS'nan'
p867
aS'nan'
p868
aS'nan'
p869
aS'nan'
p870
aS'nan'
p871
aS'nan'
p872
aS'nan'
p873
aS'nan'
p874
aS'nan'
p875
aS'nan'
p876
aS'nan'
p877
aS'nan'
p878
aS'nan'
p879
aS'nan'
p880
aS'nan'
p881
aS'nan'
p882
aS'nan'
p883
aS'nan'
p884
aS'nan'
p885
aS'nan'
p886
aS'nan'
p887
aS'nan'
p888
aS'nan'
p889
aS'nan'
p890
aS'nan'
p891
aS'nan'
p892
aS'nan'
p893
aS'nan'
p894
aS'nan'
p895
aS'nan'
p896
aS'nan'
p897
aS'nan'
p898
aS'nan'
p899
aS'nan'
p900
aS'nan'
p901
aS'nan'
p902
aS'nan'
p903
aS'nan'
p904
aS'nan'
p905
aS'nan'
p906
aS'nan'
p907
aS'nan'
p908
aS'nan'
p909
aS'nan'
p910
aS'nan'
p911
aS'nan'
p912
aS'nan'
p913
aS'nan'
p914
aS'nan'
p915
aS'nan'
p916
aS'nan'
p917
aS'nan'
p918
aS'nan'
p919
aS'nan'
p920
aS'nan'
p921
aS'nan'
p922
aS'nan'
p923
aS'nan'
p924
aS'nan'
p925
aS'nan'
p926
aS'nan'
p927
aS'nan'
p928
aS'nan'
p929
aS'nan'
p930
aS'nan'
p931
aS'nan'
p932
aS'nan'
p933
aS'nan'
p934
aS'nan'
p935
aS'nan'
p936
aS'nan'
p937
aS'nan'
p938
aS'nan'
p939
aS'nan'
p940
aS'nan'
p941
asS'XRS_files'
p942
(lp943
S'/xrs2007150'
p944
aS'/xrs2011044'
p945
aS'/xrs2011045'
p946
aS'/xrs2011045'
p947
aS'/xrs2011045'
p948
aS'/xrs2011048'
p949
aS'/xrs2011050'
p950
aS'/xrs2011050'
p951
aS'/xrs2011050'
p952
aS'/xrs2011063'
p953
aS'/xrs2011064'
p954
aS'/xrs2011261'
p955
aS'/xrs2011262'
p956
aS'/xrs2011262'
p957
aS'/xrs2011263'
p958
aS'/xrs2011263'
p959
aS'/xrs2011263'
p960
aS'/xrs2011263'
p961
aS'/xrs2011273'
p962
aS'/xrs2011274'
p963
aS'/xrs2011274'
p964
aS'/xrs2011285'
p965
aS'/xrs2011290'
p966
aS'/xrs2011290'
p967
aS'/xrs2011292'
p968
aS'/xrs2011292'
p969
aS'/xrs2011295'
p970
aS'/xrs2011300'
p971
aS'/xrs2011301'
p972
aS'/xrs2011303'
p973
aS'/xrs2011303'
p974
aS'/xrs2011303'
p975
aS'/xrs2011303'
p976
aS'/xrs2011303'
p977
aS'/xrs2011304'
p978
aS'/xrs2011304'
p979
aS'/xrs2011304'
p980
aS'/xrs2011317'
p981
aS'/xrs2011317'
p982
aS'/xrs2011349'
p983
aS'/xrs2011361'
p984
aS'/xrs2012016'
p985
aS'/xrs2012041'
p986
aS'/xrs2012113'
p987
aS'/xrs2012118'
p988
aS'/xrs2012146'
p989
aS'/xrs2012177'
p990
aS'/xrs2012177'
p991
aS'/xrs2012181'
p992
aS'/xrs2012182'
p993
aS'/xrs2012232'
p994
aS'/xrs2012256'
p995
aS'/xrs2012256'
p996
aS'/xrs2012256'
p997
aS'/xrs2012261'
p998
aS'/xrs2012273'
p999
aS'/xrs2012273'
p1000
aS'/xrs2012274'
p1001
aS'/xrs2012274'
p1002
aS'/xrs2012275'
p1003
aS'/xrs2012275'
p1004
aS'/xrs2012281'
p1005
aS'/xrs2012281'
p1006
aS'/xrs2012312'
p1007
aS'/xrs2012312'
p1008
aS'/xrs2012356'
p1009
aS'/xrs2013009'
p1010
aS'/xrs2013102'
p1011
aS'/xrs2013111'
p1012
aS'/xrs2013111'
p1013
aS'/xrs2013117'
p1014
aS'/xrs2013119'
p1015
aS'/xrs2013119'
p1016
aS'/xrs2013120'
p1017
aS'/xrs2013121'
p1018
aS'/xrs2013121'
p1019
aS'/xrs2013124'
p1020
aS'/xrs2013125'
p1021
aS'/xrs2013137'
p1022
aS'/xrs2013139'
p1023
aS'/xrs2013143'
p1024
aS'/xrs2013226'
p1025
assS'ID'
p1026
(lp1027
F7053005.0
aF201156130656.0
aF11021464.0
aF11021439.0
aF11021465.0
aF201141170341.0
aF11021975.0
aF11021935.0
aF11021937.0
aF201112041412.0
aF201142050242.0
aF201129182129.0
aF201149191049.0
aF201135190235.0
aF11092032.0
aF11092066.0
aF201124200724.0
aF201133200233.0
aF11093035.0
aF201134012034.0
aF201142010842.0
aF201107120807.0
aF201147171647.0
aF11101717.0
aF201135191435.0
aF201158191658.0
aF201153220253.0
aF201129271229.0
aF201128280928.0
aF201140302240.0
aF201127300727.0
aF201125300925.0
aF201157301457.0
aF201137302137.0
aF201150310850.0
aF201125310525.0
aF201137310037.0
aF201126131726.0
aF201102131202.0
aF201136151136.0
aF11122744.0
aF12011632.0
aF201223101523.0
aF201257220657.0
aF201243271543.0
aF201215251115.0
aF12062521.0
aF12062512.0
aF12062905.0
aF201238301238.0
aF12081918.0
aF12091224.0
aF12091225.0
aF12091227.0
aF12091702.0
aF201252290752.0
aF201238290238.0
aF12093033.0
aF201231301531.0
aF201244011544.0
aF12100165.0
aF12100707.0
aF12100708.0
aF12110705.0
aF12110706.0
aF201232212232.0
aF13010922.0
aF13041256.0
aF201324211524.0
aF201311210711.0
aF13042736.0
aF13042928.0
aF13042965.0
aF13043023.0
aF201301010101.0
aF201308012308.0
aF201316042316.0
aF201328051628.0
aF201337170137.0
aF201328190328.0
aF201309231009.0
aF201347141747.0
asS'Datetimes'
p1028
(dp1029
S'Obs_start_time'
p1030
(lp1031
cdatetime
datetime
p1032
(S'\x07\xd7\x05\x1e\r57\x00\x00\x00'
p1033
tp1034
Rp1035
ag1032
(S'\x07\xdb\x02\r\x07\x07/\x00\x00\x00'
p1036
tp1037
Rp1038
ag1032
(S'\x07\xdb\x02\x0e\x0f42\x00\x00\x00'
p1039
tp1040
Rp1041
ag1032
(S'\x07\xdb\x02\x0e\x0f42\x00\x00\x00'
p1042
tp1043
Rp1044
ag1032
(S'\x07\xdb\x02\x0e\x0f42\x00\x00\x00'
p1045
tp1046
Rp1047
ag1032
(S'\x07\xdb\x02\x11\x034;\x00\x00\x00'
p1048
tp1049
Rp1050
ag1032
(S'\x07\xdb\x02\x13\x0c\x00$\x00\x00\x00'
p1051
tp1052
Rp1053
ag1032
(S'\x07\xdb\x02\x13\x0c\x00$\x00\x00\x00'
p1054
tp1055
Rp1056
ag1032
(S'\x07\xdb\x02\x13\x0c\x00$\x00\x00\x00'
p1057
tp1058
Rp1059
ag1032
(S'\x07\xdb\x03\x04\x0e\x10\x1a\x00\x00\x00'
p1060
tp1061
Rp1062
ag1032
(S'\x07\xdb\x03\x05\x02.\x1e\x00\x00\x00'
p1063
tp1064
Rp1065
ag1032
(S'\x07\xdb\t\x12\x15 \x05\x00\x00\x00'
p1066
tp1067
Rp1068
ag1032
(S'\x07\xdb\t\x13\x0b\x01:\x00\x00\x00'
p1069
tp1070
Rp1071
ag1032
(S'\x07\xdb\t\x13\x02)\x06\x00\x00\x00'
p1072
tp1073
Rp1074
ag1032
(S'\x07\xdb\t\x14\x0c$\x1a\x00\x00\x00'
p1075
tp1076
Rp1077
ag1032
(S'\x07\xdb\t\x14\x0c$\x1a\x00\x00\x00'
p1078
tp1079
Rp1080
ag1032
(S'\x07\xdb\t\x14\x07\x1a\x1a\x00\x00\x00'
p1081
tp1082
Rp1083
ag1032
(S"\x07\xdb\t\x14\x02'\x1a\x00\x00\x00"
p1084
tp1085
Rp1086
ag1032
(S'\x07\xdb\t\x1e\x161\x08\x00\x00\x00'
p1087
tp1088
Rp1089
ag1032
(S'\x07\xdb\n\x01\x1452\x00\x00\x00'
p1090
tp1091
Rp1092
ag1032
(S'\x07\xdb\n\x01\x0810\x00\x00\x00'
p1093
tp1094
Rp1095
ag1032
(S'\x07\xdb\n\x0c\x08\t;\x00\x00\x00'
p1096
tp1097
Rp1098
ag1032
(S'\x07\xdb\n\x11\x101.\x00\x00\x00'
p1099
tp1100
Rp1101
ag1032
(S'\x07\xdb\n\x11\x0e\x15\x1a\x00\x00\x00'
p1102
tp1103
Rp1104
ag1032
(S'\x07\xdb\n\x13\x0e%\x1c\x00\x00\x00'
p1105
tp1106
Rp1107
ag1032
(S'\x07\xdb\n\x13\x11\x00,\x00\x00\x00'
p1108
tp1109
Rp1110
ag1032
(S'\x07\xdb\n\x16\x0276\x00\x00\x00'
p1111
tp1112
Rp1113
ag1032
(S'\x07\xdb\n\x1b\x0c1\r\x00\x00\x00'
p1114
tp1115
Rp1116
ag1032
(S'\x07\xdb\n\x1c\t!\x00\x00\x00\x00'
p1117
tp1118
Rp1119
ag1032
(S'\x07\xdb\n\x1e\x17\x00\x01\x00\x00\x00'
p1120
tp1121
Rp1122
ag1032
(S'\x07\xdb\n\x1e\x07"#\x00\x00\x00'
p1123
tp1124
Rp1125
ag1032
(S'\x07\xdb\n\x1e\t\x1d%\x00\x00\x00'
p1126
tp1127
Rp1128
ag1032
(S'\x07\xdb\n\x1e\x0f\x04%\x00\x00\x00'
p1129
tp1130
Rp1131
ag1032
(S'\x07\xdb\n\x1e\x15*;\x00\x00\x00'
p1132
tp1133
Rp1134
ag1032
(S'\x07\xdb\n\x1f\t\t\x1b\x00\x00\x00'
p1135
tp1136
Rp1137
ag1032
(S'\x07\xdb\n\x1f\x05\x1c\x08\x00\x00\x00'
p1138
tp1139
Rp1140
ag1032
(S'\x07\xdb\n\x1f\x006(\x00\x00\x00'
p1141
tp1142
Rp1143
ag1032
(S'\x07\xdb\x0b\r\x11\x1c\x17\x00\x00\x00'
p1144
tp1145
Rp1146
ag1032
(S'\x07\xdb\x0b\r\x0c\x04\x16\x00\x00\x00'
p1147
tp1148
Rp1149
ag1032
(S'\x07\xdb\x0c\x0f\x0b&\x1f\x00\x00\x00'
p1150
tp1151
Rp1152
ag1032
(S'\x07\xdb\x0c\x1b\x13\x1d"\x00\x00\x00'
p1153
tp1154
Rp1155
ag1032
(S'\x07\xdc\x01\x10\n\x1a\x19\x00\x00\x00'
p1156
tp1157
Rp1158
ag1032
(S'\x07\xdc\x02\n\x0f\x19\x19\x00\x00\x00'
p1159
tp1160
Rp1161
ag1032
(S'\x07\xdc\x04\x16\x07\x08\r\x00\x00\x00'
p1162
tp1163
Rp1164
ag1032
(S'\x07\xdc\x04\x1b\x0f:\x18\x00\x00\x00'
p1165
tp1166
Rp1167
ag1032
(S'\x07\xdc\x05\x19\x0b\x124\x00\x00\x00'
p1168
tp1169
Rp1170
ag1032
(S'\x07\xdc\x06\x19\x12\x1a\x10\x00\x00\x00'
p1171
tp1172
Rp1173
ag1032
(S'\x07\xdc\x06\x19\x12\x1a\x10\x00\x00\x00'
p1174
tp1175
Rp1176
ag1032
(S'\x07\xdc\x06\x1d\x01\x15&\x00\x00\x00'
p1177
tp1178
Rp1179
ag1032
(S'\x07\xdc\x06\x1e\x0c1$\x00\x00\x00'
p1180
tp1181
Rp1182
ag1032
(S'\x07\xdc\x08\x13\x04)\x11\x00\x00\x00'
p1183
tp1184
Rp1185
ag1032
(S'\x07\xdc\t\x0c\x0b\x148\x00\x00\x00'
p1186
tp1187
Rp1188
ag1032
(S'\x07\xdc\t\x0c\x0b\x148\x00\x00\x00'
p1189
tp1190
Rp1191
ag1032
(S'\x07\xdc\t\x0c\x0b\x148\x00\x00\x00'
p1192
tp1193
Rp1194
ag1032
(S'\x07\xdc\t\x11\x06\x13\x10\x00\x00\x00'
p1195
tp1196
Rp1197
ag1032
(S'\x07\xdc\t\x1d\x075/\x00\x00\x00'
p1198
tp1199
Rp1200
ag1032
(S'\x07\xdc\t\x1d\x02+/\x00\x00\x00'
p1201
tp1202
Rp1203
ag1032
(S'\x07\xdc\t\x1e\x0b(\x1a\x00\x00\x00'
p1204
tp1205
Rp1206
ag1032
(S'\x07\xdc\t\x1e\x0f!.\x00\x00\x00'
p1207
tp1208
Rp1209
ag1032
(S'\x07\xdc\n\x01\x0f--\x00\x00\x00'
p1210
tp1211
Rp1212
ag1032
(S'\x07\xdc\n\x01\x14/-\x00\x00\x00'
p1213
tp1214
Rp1215
ag1032
(S'\x07\xdc\n\x07\x14\x1b*\x00\x00\x00'
p1216
tp1217
Rp1218
ag1032
(S'\x07\xdc\n\x07\x14\x1b*\x00\x00\x00'
p1219
tp1220
Rp1221
ag1032
(S'\x07\xdc\x0b\x07\x074\x1c\x00\x00\x00'
p1222
tp1223
Rp1224
ag1032
(S'\x07\xdc\x0b\x07\x074\x1c\x00\x00\x00'
p1225
tp1226
Rp1227
ag1032
(S'\x07\xdc\x0c\x15\x16"\x03\x00\x00\x00'
p1228
tp1229
Rp1230
ag1032
(S"\x07\xdd\x01\t\x0e'3\x00\x00\x00"
p1231
tp1232
Rp1233
ag1032
(S'\x07\xdd\x04\x0c\x13\x14%\x00\x00\x00'
p1234
tp1235
Rp1236
ag1032
(S'\x07\xdd\x04\x15\x0f\x1a\x0e\x00\x00\x00'
p1237
tp1238
Rp1239
ag1032
(S'\x07\xdd\x04\x15\x07\x1d"\x00\x00\x00'
p1240
tp1241
Rp1242
ag1032
(S'\x07\xdd\x04\x1b\n3\x14\x00\x00\x00'
p1243
tp1244
Rp1245
ag1032
(S'\x07\xdd\x04\x1d\t\x0f\x1a\x00\x00\x00'
p1246
tp1247
Rp1248
ag1032
(S'\x07\xdd\x04\x1d\x13*\x06\x00\x00\x00'
p1249
tp1250
Rp1251
ag1032
(S'\x07\xdd\x04\x1e\x08;\x1d\x00\x00\x00'
p1252
tp1253
Rp1254
ag1032
(S'\x07\xdd\x05\x01\x01\x06\x0c\x00\x00\x00'
p1255
tp1256
Rp1257
ag1032
(S'\x07\xdd\x05\x01\x17\t \x00\x00\x00'
p1258
tp1259
Rp1260
ag1032
(S'\x07\xdd\x05\x04\x17\x11(\x00\x00\x00'
p1261
tp1262
Rp1263
ag1032
(S'\x07\xdd\x05\x05\x10\x1d\x03\x00\x00\x00'
p1264
tp1265
Rp1266
ag1032
(S'\x07\xdd\x05\x11\x01*\x07\x00\x00\x00'
p1267
tp1268
Rp1269
ag1032
(S'\x07\xdd\x05\x13\x03\x1e\x06\x00\x00\x00'
p1270
tp1271
Rp1272
ag1032
(S'\x07\xdd\x05\x17\n\x0e(\x00\x00\x00'
p1273
tp1274
Rp1275
ag1032
(S'\x07\xdd\x08\x0e\x110/\x00\x00\x00'
p1276
tp1277
Rp1278
asS'Obs_end_time'
p1279
(lp1280
g1032
(S'\x07\xd7\x05\x1e\r6\x0b\x00\x00\x00'
p1281
tp1282
Rp1283
ag1032
(S'\x07\xdb\x02\r\x07\x08\x03\x00\x00\x00'
p1284
tp1285
Rp1286
ag1032
(S'\x07\xdb\x02\x0e\x0f5\x06\x00\x00\x00'
p1287
tp1288
Rp1289
ag1032
(S'\x07\xdb\x02\x0e\x0f5\x06\x00\x00\x00'
p1290
tp1291
Rp1292
ag1032
(S'\x07\xdb\x02\x0e\x0f5\x06\x00\x00\x00'
p1293
tp1294
Rp1295
ag1032
(S'\x07\xdb\x02\x11\x035\x0f\x00\x00\x00'
p1296
tp1297
Rp1298
ag1032
(S'\x07\xdb\x02\x13\x0c\x004\x00\x00\x00'
p1299
tp1300
Rp1301
ag1032
(S'\x07\xdb\x02\x13\x0c\x004\x00\x00\x00'
p1302
tp1303
Rp1304
ag1032
(S'\x07\xdb\x02\x13\x0c\x004\x00\x00\x00'
p1305
tp1306
Rp1307
ag1032
(S'\x07\xdb\x03\x04\x0e\x10*\x00\x00\x00'
p1308
tp1309
Rp1310
ag1032
(S'\x07\xdb\x03\x05\x02..\x00\x00\x00'
p1311
tp1312
Rp1313
ag1032
(S'\x07\xdb\t\x12\x15 \x15\x00\x00\x00'
p1314
tp1315
Rp1316
ag1032
(S'\x07\xdb\t\x13\x0b\x02\x0e\x00\x00\x00'
p1317
tp1318
Rp1319
ag1032
(S'\x07\xdb\t\x13\x02)\x16\x00\x00\x00'
p1320
tp1321
Rp1322
ag1032
(S'\x07\xdb\t\x14\x0c$*\x00\x00\x00'
p1323
tp1324
Rp1325
ag1032
(S'\x07\xdb\t\x14\x0c$*\x00\x00\x00'
p1326
tp1327
Rp1328
ag1032
(S'\x07\xdb\t\x14\x07\x1a*\x00\x00\x00'
p1329
tp1330
Rp1331
ag1032
(S"\x07\xdb\t\x14\x02'*\x00\x00\x00"
p1332
tp1333
Rp1334
ag1032
(S'\x07\xdb\t\x1e\x161\x18\x00\x00\x00'
p1335
tp1336
Rp1337
ag1032
(S'\x07\xdb\n\x01\x146\x06\x00\x00\x00'
p1338
tp1339
Rp1340
ag1032
(S'\x07\xdb\n\x01\x082\x04\x00\x00\x00'
p1341
tp1342
Rp1343
ag1032
(S'\x07\xdb\n\x0c\x08\n\x0f\x00\x00\x00'
p1344
tp1345
Rp1346
ag1032
(S'\x07\xdb\n\x11\x102\x02\x00\x00\x00'
p1347
tp1348
Rp1349
ag1032
(S'\x07\xdb\n\x11\x0e\x15*\x00\x00\x00'
p1350
tp1351
Rp1352
ag1032
(S'\x07\xdb\n\x13\x0e%,\x00\x00\x00'
p1353
tp1354
Rp1355
ag1032
(S'\x07\xdb\n\x13\x11\x01\x00\x00\x00\x00'
p1356
tp1357
Rp1358
ag1032
(S'\x07\xdb\n\x16\x028\n\x00\x00\x00'
p1359
tp1360
Rp1361
ag1032
(S'\x07\xdb\n\x1b\x0c1\x1d\x00\x00\x00'
p1362
tp1363
Rp1364
ag1032
(S'\x07\xdb\n\x1c\t!\x10\x00\x00\x00'
p1365
tp1366
Rp1367
ag1032
(S'\x07\xdb\n\x1e\x17\x00\x11\x00\x00\x00'
p1368
tp1369
Rp1370
ag1032
(S'\x07\xdb\n\x1e\x07"3\x00\x00\x00'
p1371
tp1372
Rp1373
ag1032
(S'\x07\xdb\n\x1e\t\x1d5\x00\x00\x00'
p1374
tp1375
Rp1376
ag1032
(S'\x07\xdb\n\x1e\x0f\x045\x00\x00\x00'
p1377
tp1378
Rp1379
ag1032
(S'\x07\xdb\n\x1e\x15+\x0f\x00\x00\x00'
p1380
tp1381
Rp1382
ag1032
(S'\x07\xdb\n\x1f\t\t+\x00\x00\x00'
p1383
tp1384
Rp1385
ag1032
(S'\x07\xdb\n\x1f\x05\x1c\x18\x00\x00\x00'
p1386
tp1387
Rp1388
ag1032
(S'\x07\xdb\n\x1f\x0068\x00\x00\x00'
p1389
tp1390
Rp1391
ag1032
(S"\x07\xdb\x0b\r\x11\x1c'\x00\x00\x00"
p1392
tp1393
Rp1394
ag1032
(S'\x07\xdb\x0b\r\x0c\x04&\x00\x00\x00'
p1395
tp1396
Rp1397
ag1032
(S'\x07\xdb\x0c\x0f\x0b&/\x00\x00\x00'
p1398
tp1399
Rp1400
ag1032
(S'\x07\xdb\x0c\x1b\x13\x1d2\x00\x00\x00'
p1401
tp1402
Rp1403
ag1032
(S'\x07\xdc\x01\x10\n\x1a)\x00\x00\x00'
p1404
tp1405
Rp1406
ag1032
(S'\x07\xdc\x02\n\x0f\x19)\x00\x00\x00'
p1407
tp1408
Rp1409
ag1032
(S'\x07\xdc\x04\x16\x07\x08\x1d\x00\x00\x00'
p1410
tp1411
Rp1412
ag1032
(S'\x07\xdc\x04\x1b\x0f:(\x00\x00\x00'
p1413
tp1414
Rp1415
ag1032
(S'\x07\xdc\x05\x19\x0b\x13\x08\x00\x00\x00'
p1416
tp1417
Rp1418
ag1032
(S'\x07\xdc\x06\x19\x12\x1a \x00\x00\x00'
p1419
tp1420
Rp1421
ag1032
(S'\x07\xdc\x06\x19\x12\x1a \x00\x00\x00'
p1422
tp1423
Rp1424
ag1032
(S'\x07\xdc\x06\x1d\x01\x156\x00\x00\x00'
p1425
tp1426
Rp1427
ag1032
(S'\x07\xdc\x06\x1e\x0c14\x00\x00\x00'
p1428
tp1429
Rp1430
ag1032
(S'\x07\xdc\x08\x13\x04)!\x00\x00\x00'
p1431
tp1432
Rp1433
ag1032
(S'\x07\xdc\t\x0c\x0b\x15\x0c\x00\x00\x00'
p1434
tp1435
Rp1436
ag1032
(S'\x07\xdc\t\x0c\x0b\x15\x0c\x00\x00\x00'
p1437
tp1438
Rp1439
ag1032
(S'\x07\xdc\t\x0c\x0b\x15\x0c\x00\x00\x00'
p1440
tp1441
Rp1442
ag1032
(S'\x07\xdc\t\x11\x06\x13 \x00\x00\x00'
p1443
tp1444
Rp1445
ag1032
(S'\x07\xdc\t\x1d\x076\x03\x00\x00\x00'
p1446
tp1447
Rp1448
ag1032
(S'\x07\xdc\t\x1d\x02,\x03\x00\x00\x00'
p1449
tp1450
Rp1451
ag1032
(S'\x07\xdc\t\x1e\x0b(*\x00\x00\x00'
p1452
tp1453
Rp1454
ag1032
(S'\x07\xdc\t\x1e\x0f"\x02\x00\x00\x00'
p1455
tp1456
Rp1457
ag1032
(S'\x07\xdc\n\x01\x0f.\x01\x00\x00\x00'
p1458
tp1459
Rp1460
ag1032
(S'\x07\xdc\n\x01\x140\x01\x00\x00\x00'
p1461
tp1462
Rp1463
ag1032
(S'\x07\xdc\n\x07\x14\x1b:\x00\x00\x00'
p1464
tp1465
Rp1466
ag1032
(S'\x07\xdc\n\x07\x14\x1b:\x00\x00\x00'
p1467
tp1468
Rp1469
ag1032
(S'\x07\xdc\x0b\x07\x074,\x00\x00\x00'
p1470
tp1471
Rp1472
ag1032
(S'\x07\xdc\x0b\x07\x074,\x00\x00\x00'
p1473
tp1474
Rp1475
ag1032
(S'\x07\xdc\x0c\x15\x16"\x13\x00\x00\x00'
p1476
tp1477
Rp1478
ag1032
(S'\x07\xdd\x01\t\x0e(\x07\x00\x00\x00'
p1479
tp1480
Rp1481
ag1032
(S'\x07\xdd\x04\x0c\x13\x145\x00\x00\x00'
p1482
tp1483
Rp1484
ag1032
(S'\x07\xdd\x04\x15\x0f\x1a\x1e\x00\x00\x00'
p1485
tp1486
Rp1487
ag1032
(S'\x07\xdd\x04\x15\x07\x1d2\x00\x00\x00'
p1488
tp1489
Rp1490
ag1032
(S'\x07\xdd\x04\x1b\n3$\x00\x00\x00'
p1491
tp1492
Rp1493
ag1032
(S'\x07\xdd\x04\x1d\t\x0f*\x00\x00\x00'
p1494
tp1495
Rp1496
ag1032
(S'\x07\xdd\x04\x1d\x13*\x16\x00\x00\x00'
p1497
tp1498
Rp1499
ag1032
(S'\x07\xdd\x04\x1e\x08;-\x00\x00\x00'
p1500
tp1501
Rp1502
ag1032
(S'\x07\xdd\x05\x01\x01\x06\x1c\x00\x00\x00'
p1503
tp1504
Rp1505
ag1032
(S'\x07\xdd\x05\x01\x17\t0\x00\x00\x00'
p1506
tp1507
Rp1508
ag1032
(S'\x07\xdd\x05\x04\x17\x118\x00\x00\x00'
p1509
tp1510
Rp1511
ag1032
(S'\x07\xdd\x05\x05\x10\x1d\x13\x00\x00\x00'
p1512
tp1513
Rp1514
ag1032
(S'\x07\xdd\x05\x11\x01*\x17\x00\x00\x00'
p1515
tp1516
Rp1517
ag1032
(S'\x07\xdd\x05\x13\x03\x1e\x16\x00\x00\x00'
p1518
tp1519
Rp1520
ag1032
(S'\x07\xdd\x05\x17\n\x0e8\x00\x00\x00'
p1521
tp1522
Rp1523
ag1032
(S'\x07\xdd\x08\x0e\x111\x03\x00\x00\x00'
p1524
tp1525
Rp1526
asS'Messenger_datetimes'
p1527
(lp1528
g1032
(S'\x07\xd7\x05\x1e\r.!\x00\x00\x00'
p1529
tp1530
Rp1531
ag1032
(S'\x07\xdb\x02\r\x068(\x00\x00\x00'
p1532
tp1533
Rp1534
ag1032
(S'\x07\xdb\x02\x0e\x0f)+\x00\x00\x00'
p1535
tp1536
Rp1537
ag1032
(S'\x07\xdb\x02\x0e\x0f)+\x00\x00\x00'
p1538
tp1539
Rp1540
ag1032
(S'\x07\xdb\x02\x0e\x0f)+\x00\x00\x00'
p1541
tp1542
Rp1543
ag1032
(S'\x07\xdb\x02\x11\x03)4\x00\x00\x00'
p1544
tp1545
Rp1546
ag1032
(S'\x07\xdb\x02\x13\x0b1\x1d\x00\x00\x00'
p1547
tp1548
Rp1549
ag1032
(S'\x07\xdb\x02\x13\x0b1\x1d\x00\x00\x00'
p1550
tp1551
Rp1552
ag1032
(S'\x07\xdb\x02\x13\x0b1\x1d\x00\x00\x00'
p1553
tp1554
Rp1555
ag1032
(S'\x07\xdb\x03\x04\x0e\x0c1\x00\x00\x00'
p1556
tp1557
Rp1558
ag1032
(S'\x07\xdb\x03\x05\x02*5\x00\x00\x00'
p1559
tp1560
Rp1561
ag1032
(S'\x07\xdb\t\x12\x15\x1d+\x00\x00\x00'
p1562
tp1563
Rp1564
ag1032
(S'\x07\xdb\t\x13\n1%\x00\x00\x00'
p1565
tp1566
Rp1567
ag1032
(S'\x07\xdb\t\x13\x02#\x19\x00\x00\x00'
p1568
tp1569
Rp1570
ag1032
(S'\x07\xdb\t\x14\x0c\x1d\x04\x00\x00\x00'
p1571
tp1572
Rp1573
ag1032
(S'\x07\xdb\t\x14\x0c\x1d\x04\x00\x00\x00'
p1574
tp1575
Rp1576
ag1032
(S'\x07\xdb\t\x14\x07\x18\x04\x00\x00\x00'
p1577
tp1578
Rp1579
ag1032
(S'\x07\xdb\t\x14\x02!,\x00\x00\x00'
p1580
tp1581
Rp1582
ag1032
(S'\x07\xdb\t\x1e\x16&\x1b\x00\x00\x00'
p1583
tp1584
Rp1585
ag1032
(S'\x07\xdb\n\x01\x14"0\x00\x00\x00'
p1586
tp1587
Rp1588
ag1032
(S'\x07\xdb\n\x01\x08*\x1a\x00\x00\x00'
p1589
tp1590
Rp1591
ag1032
(S'\x07\xdb\n\x0c\x08\x07%\x00\x00\x00'
p1592
tp1593
Rp1594
ag1032
(S'\x07\xdb\n\x11\x10/\x18\x00\x00\x00'
p1595
tp1596
Rp1597
ag1032
(S'\x07\xdb\n\x11\x0e\x11\x18\x00\x00\x00'
p1598
tp1599
Rp1600
ag1032
(S'\x07\xdb\n\x13\x0e#\x07\x00\x00\x00'
p1601
tp1602
Rp1603
ag1032
(S'\x07\xdb\n\x13\x10:\x17\x00\x00\x00'
p1604
tp1605
Rp1606
ag1032
(S'\x07\xdb\n\x16\x025 \x00\x00\x00'
p1607
tp1608
Rp1609
ag1032
(S'\x07\xdb\n\x1b\x0c\x1d\x1f\x00\x00\x00'
p1610
tp1611
Rp1612
ag1032
(S'\x07\xdb\n\x1c\t\x1c:\x00\x00\x00'
p1613
tp1614
Rp1615
ag1032
(S'\x07\xdb\n\x1e\x16(%\x00\x00\x00'
p1616
tp1617
Rp1618
ag1032
(S'\x07\xdb\n\x1e\x07\x1b\r\x00\x00\x00'
p1619
tp1620
Rp1621
ag1032
(S'\x07\xdb\n\x1e\t\x19#\x00\x00\x00'
p1622
tp1623
Rp1624
ag1032
(S'\x07\xdb\n\x1e\x0e9\x0f\x00\x00\x00'
p1625
tp1626
Rp1627
ag1032
(S'\x07\xdb\n\x1e\x15%\x11\x00\x00\x00'
p1628
tp1629
Rp1630
ag1032
(S'\x07\xdb\n\x1f\x082\x19\x00\x00\x00'
p1631
tp1632
Rp1633
ag1032
(S'\x07\xdb\n\x1f\x05\x19.\x00\x00\x00'
p1634
tp1635
Rp1636
ag1032
(S'\x07\xdb\n\x1f\x00%\x12\x00\x00\x00'
p1637
tp1638
Rp1639
ag1032
(S'\x07\xdb\x0b\r\x11\x1a\x01\x00\x00\x00'
p1640
tp1641
Rp1642
ag1032
(S'\x07\xdb\x0b\r\x0c\x02\x00\x00\x00\x00'
p1643
tp1644
Rp1645
ag1032
(S'\x07\xdb\x0c\x0f\x0b$\t\x00\x00\x00'
p1646
tp1647
Rp1648
ag1032
(S'\x07\xdb\x0c\x1b\x13\x16\r\x00\x00\x00'
p1649
tp1650
Rp1651
ag1032
(S'\x07\xdc\x01\x10\n\x18\x04\x00\x00\x00'
p1652
tp1653
Rp1654
ag1032
(S'\x07\xdc\x02\n\x0f\x17\x04\x00\x00\x00'
p1655
tp1656
Rp1657
ag1032
(S'\x07\xdc\x04\x16\x069\x06\x00\x00\x00'
p1658
tp1659
Rp1660
ag1032
(S'\x07\xdc\x04\x1b\x0f+!\x00\x00\x00'
p1661
tp1662
Rp1663
ag1032
(S'\x07\xdc\x05\x19\x0b\x0f\x10\x00\x00\x00'
p1664
tp1665
Rp1666
ag1032
(S'\x07\xdc\x06\x19\x12\x0f\t\x00\x00\x00'
p1667
tp1668
Rp1669
ag1032
(S'\x07\xdc\x06\x19\x12\x0f\t\x00\x00\x00'
p1670
tp1671
Rp1672
ag1032
(S'\x07\xdc\x06\x1d\x01\x12\x01\x00\x00\x00'
p1673
tp1674
Rp1675
ag1032
(S'\x07\xdc\x06\x1e\x0c&\x1d\x00\x00\x00'
p1676
tp1677
Rp1678
ag1032
(S'\x07\xdc\x08\x13\x04$\x1a\x00\x00\x00'
p1679
tp1680
Rp1681
ag1032
(S'\x07\xdc\t\x0c\x0b\n\x07\x00\x00\x00'
p1682
tp1683
Rp1684
ag1032
(S'\x07\xdc\t\x0c\x0b\n\x07\x00\x00\x00'
p1685
tp1686
Rp1687
ag1032
(S'\x07\xdc\t\x0c\x0b\n\x07\x00\x00\x00'
p1688
tp1689
Rp1690
ag1032
(S'\x07\xdc\t\x11\x06\x11-\x00\x00\x00'
p1691
tp1692
Rp1693
ag1032
(S'\x07\xdc\t\x1d\x074\x10\x00\x00\x00'
p1694
tp1695
Rp1696
ag1032
(S'\x07\xdc\t\x1d\x02&8\x00\x00\x00'
p1697
tp1698
Rp1699
ag1032
(S'\x07\xdc\t\x1e\x0b&7\x00\x00\x00'
p1700
tp1701
Rp1702
ag1032
(S'\x07\xdc\t\x1e\x0f\x1f#\x00\x00\x00'
p1703
tp1704
Rp1705
ag1032
(S'\x07\xdc\n\x01\x0f,\x0e\x00\x00\x00'
p1706
tp1707
Rp1708
ag1032
(S'\x07\xdc\n\x01\x14.\x0e\x00\x00\x00'
p1709
tp1710
Rp1711
ag1032
(S'\x07\xdc\n\x07\x14\x162\x00\x00\x00'
p1712
tp1713
Rp1714
ag1032
(S'\x07\xdc\n\x07\x14\x162\x00\x00\x00'
p1715
tp1716
Rp1717
ag1032
(S'\x07\xdc\x0b\x07\x073$\x00\x00\x00'
p1718
tp1719
Rp1720
ag1032
(S'\x07\xdc\x0b\x07\x073$\x00\x00\x00'
p1721
tp1722
Rp1723
ag1032
(S'\x07\xdc\x0c\x15\x16  \x00\x00\x00'
p1724
tp1725
Rp1726
ag1032
(S'\x07\xdd\x01\t\x0e#\x00\x00\x00\x00'
p1727
tp1728
Rp1729
ag1032
(S'\x07\xdd\x04\x0c\x13\x0f.\x00\x00\x00'
p1730
tp1731
Rp1732
ag1032
(S'\x07\xdd\x04\x15\x0f\x18+\x00\x00\x00'
p1733
tp1734
Rp1735
ag1032
(S'\x07\xdd\x04\x15\x07\x0b\x17\x00\x00\x00'
p1736
tp1737
Rp1738
ag1032
(S'\x07\xdd\x04\x1b\n11\x00\x00\x00'
p1739
tp1740
Rp1741
ag1032
(S'\x07\xdd\x04\x1d\t\r7\x00\x00\x00'
p1742
tp1743
Rp1744
ag1032
(S'\x07\xdd\x04\x1d\x13(#\x00\x00\x00'
p1745
tp1746
Rp1747
ag1032
(S'\x07\xdd\x04\x1e\x086&\x00\x00\x00'
p1748
tp1749
Rp1750
ag1032
(S'\x07\xdd\x05\x01\x01\x01\x14\x00\x00\x00'
p1751
tp1752
Rp1753
ag1032
(S'\x07\xdd\x05\x01\x17\x08\x00\x00\x00\x00'
p1754
tp1755
Rp1756
ag1032
(S'\x07\xdd\x05\x04\x17\x10\t\x00\x00\x00'
p1757
tp1758
Rp1759
ag1032
(S'\x07\xdd\x05\x05\x10\x1c4\x00\x00\x00'
p1760
tp1761
Rp1762
ag1032
(S'\x07\xdd\x05\x11\x01%\x0f\x00\x00\x00'
p1763
tp1764
Rp1765
ag1032
(S'\x07\xdd\x05\x13\x03\x1c"\x00\x00\x00'
p1766
tp1767
Rp1768
ag1032
(S'\x07\xdd\x05\x17\n\t0\x00\x00\x00'
p1769
tp1770
Rp1771
ag1032
(S'\x07\xdd\x08\x0e\x11/\x0f\x00\x00\x00'
p1772
tp1773
Rp1774
asS'RHESSI_datetimes'
p1775
(lp1776
S''
p1777
ag1777
ag1777
ag1777
ag1777
ag1777
ag1777
ag1777
ag1777
ag1777
ag1777
ag1777
ag1777
ag1777
ag1777
ag1777
ag1777
ag1777
ag1777
ag1777
ag1777
ag1777
ag1777
ag1777
ag1777
ag1777
ag1777
ag1777
ag1777
ag1777
ag1777
ag1777
ag1777
ag1777
ag1777
ag1777
ag1777
ag1777
ag1777
ag1777
ag1777
ag1777
ag1777
ag1777
ag1777
ag1777
ag1777
ag1777
ag1777
ag1777
ag1777
ag1777
ag1777
ag1777
ag1777
ag1777
ag1777
ag1777
ag1777
ag1777
ag1777
ag1777
ag1777
ag1777
ag1777
ag1777
ag1777
ag1777
ag1777
ag1777
ag1777
ag1777
ag1777
ag1777
ag1777
ag1777
ag1777
ag1777
ag1777
ag1777
ag1777
ag1777
assb.