ccopy_reg
_reconstructor
p0
(cdata_management
Data_Study
p1
c__builtin__
object
p2
Ntp3
Rp4
(dp5
S'Angle'
p6
(lp7
F62.50337424849359
aF60.64699146509474
aF60.075911481949895
aF52.59610651071607
aF38.286310615814315
aF42.95263410531598
aF102.01550077442414
aF96.70174490548968
aF153.9005900649947
aF153.9005900649947
aF153.9005900649947
aF161.01853990805157
aF161.01853990805157
aF161.01853990805157
aF161.01853990805157
aF167.76182647093714
aF152.3561477913242
aF11.379861548452656
aF20.29385855189691
aF20.29385855189691
aF59.45254482541985
aF40.291304405955984
aF38.40353112625646
aF38.40353112625646
aF83.30894734802933
aF98.4578740143128
aF112.62998064317969
aF125.42397790297399
aF129.34652579272324
aF129.34652579272324
aF133.09231543854816
aF146.2802277132379
aF146.2802277132379
aF146.2802277132379
aF146.2802277132379
aF146.2802277132379
aF146.2802277132379
aF146.2802277132379
aF146.2802277132379
aF146.2802277132379
aF146.2802277132379
aF146.2802277132379
aF146.2802277132379
aF156.4448786626775
aF158.4469361775717
aF158.4469361775717
aF152.85179009281606
aF152.85179009281606
aF123.89647280952632
aF117.76569522833788
aF95.64693941552773
aF35.60378037571247
aF79.49207407488659
aF79.49207407488659
aF79.49207407488659
aF82.37631825797726
aF85.15875687812772
aF92.95245701238207
aF92.95245701238207
aF118.34010108667877
aF127.39546314524638
aF38.04676804659359
aF10.0942439680485
aF10.0942439680485
aF10.0942439680485
aF10.0942439680485
aF66.36426818825515
aF88.38437998898156
aF105.82127796723009
aF154.9642817738605
aF80.23108162549362
aF80.23108162549362
aF71.90047885531068
aF71.90047885531068
aF71.90047885531068
aF68.05027143791428
aF68.05027143791428
aF68.05027143791428
aF68.05027143791428
aF55.66818403106506
aF55.66818403106506
aF55.66818403106506
aF55.66818403106506
aF53.99086605994832
aF53.99086605994832
aF52.32677908440818
aF52.32677908440818
aF52.32677908440818
aF52.32677908440818
aF52.32677908440818
aF52.32677908440818
aF52.32677908440818
aF52.32677908440818
aF52.32677908440818
aF52.32677908440818
aF42.45972199710355
aF40.80992347996491
aF40.80992347996491
aF40.80992347996491
aF40.80992347996491
aF40.80992347996491
aF40.80992347996491
aF40.80992347996491
aF37.48439536699969
aF28.94676661957799
aF23.681966426611336
aF21.930481161876354
aF20.203045509801868
aF18.524467851516754
aF18.524467851516754
aF18.524467851516754
aF16.9325127945844
aF19.18838425169976
aF19.18838425169976
aF21.819017489797485
aF21.819017489797485
aF24.757530031935147
aF56.38567394011217
aF121.3220735922699
aF121.3220735922699
aF121.3220735922699
aF142.09079158014927
aF145.65442623781772
aF145.65442623781772
aF159.79363818421476
aF159.79363818421476
aF159.79363818421476
aF159.79363818421476
aF164.83243352085486
aF164.83243352085486
aF146.97651938948587
aF146.97651938948587
aF145.29831188685878
aF135.24565344407284
aF135.24565344407284
aF121.41787896813779
aF117.75073854968068
aF113.9489737065834
aF113.9489737065834
aF111.98855587954215
aF109.98330036631879
aF109.98330036631879
aF109.98330036631879
aF109.98330036631879
aF109.98330036631879
aF107.92913322465725
aF107.92913322465725
aF107.92913322465725
aF107.92913322465725
aF105.82179312403015
aF105.82179312403015
aF64.38094422743526
aF64.38094422743526
aF64.38094422743526
aF64.38094422743526
aF48.959665673377614
aF40.54820158671774
aF31.90821966603274
aF31.90821966603274
aF19.952390287277176
aF15.602397827143479
aF15.602397827143479
aF15.85460624580503
aF15.85460624580503
aF15.85460624580503
aF38.19959600808889
aF38.19959600808889
aF42.737878916460645
aF42.737878916460645
aF47.219493619538866
aF150.9109757213598
aF26.29223509149599
aF26.29223509149599
aF32.510822943677375
aF32.510822943677375
aF36.45510625218825
aF36.45510625218825
aF74.92435194370731
aF74.92435194370731
aF74.92435194370731
aF76.75493731384292
aF88.60814658275655
aF97.67517740069898
aF100.13522131717086
aF105.3284200974903
aF105.3284200974903
aF108.07402311952916
aF108.07402311952916
aF110.92741442420214
aF110.92741442420214
aF110.92741442420214
aF116.98278553811858
aF116.98278553811858
aF120.19689497343377
aF123.54267298632965
aF123.54267298632965
aF130.6464919532927
aF134.4096938298507
aF155.14753966639196
aF164.88542728517325
aF155.60540840206917
aF155.60540840206917
aF155.60540840206917
aF150.71340684814493
aF150.71340684814493
aF150.71340684814493
aF136.14170407956763
aF131.45239019683495
aF99.02697171844653
aF89.27664341231487
aF89.27664341231487
aF52.140810892209736
aF52.140810892209736
aF36.85822666874547
aF30.476100448319112
asS'Notes'
p8
(lp9
S'      22.2768'
p10
aS'      9.33576'
p11
aS'      12.9415'
p12
aS'      9.15550'
p13
aS'      14.5061'
p14
aS'      17.1447'
p15
aS'      9.65805'
p16
aS'      7.97819'
p17
aS'      14.5580'
p18
aS'      14.5580'
p19
aS'      14.5580'
p20
aS'      42.8397'
p21
aS'      46.7477'
p22
aS'      46.7477'
p23
aS'      46.7477'
p24
aS'      12.7310'
p25
aS'      29.7798'
p26
aS'      14.8471'
p27
aS'      28.6426'
p28
aS'      24.6510'
p29
aS'      10.6175'
p30
aS'      26.8282'
p31
aS'      93.4582'
p32
aS'      32.0984'
p33
aS'      10.4726'
p34
aS'      13.0018'
p35
aS'      30.3266'
p36
aS'      18.6046'
p37
aS'      26.1396'
p38
aS'      26.1396'
p39
aS'      29.9972'
p40
aS'      21.6313'
p41
aS'      10.7921'
p42
aS'      10.7921'
p43
aS'      13.1650'
p44
aS'      28.1587'
p45
aS'      28.1587'
p46
aS'      17.2880'
p47
aS'      13.9443'
p48
aS'      17.2880'
p49
aS'      13.9443'
p50
aS'      13.9443'
p51
aS'      13.7602'
p52
aS'      5.42588'
p53
aS'      5.64368'
p54
aS'      6.03912'
p55
aS'      7.34390'
p56
aS'      11.5200'
p57
aS'      16.5288'
p58
aS'      20.4678'
p59
aS'      19.2395'
p60
aS'      8.39426'
p61
aS'      13.9285'
p62
aS'      16.3379'
p63
aS'      22.8132'
p64
aS'      42.3553'
p65
aS'      7.62170'
p66
aS'      21.1264'
p67
aS'      21.1264'
p68
aS'      5.56026'
p69
aS'      30.7954'
p70
aS'      21.2238'
p71
aS'      32.7620'
p72
aS'      32.7620'
p73
aS'      47.3463'
p74
aS'      47.3463'
p75
aS'      8.16926'
p76
aS'      16.5235'
p77
aS'      21.4330'
p78
aS'      36.8423'
p79
aS'      5.92593'
p80
aS'      5.92593'
p81
aS'      24.8767'
p82
aS'      25.8765'
p83
aS'      17.4819'
p84
aS'      6.19282'
p85
aS'      6.19282'
p86
aS'      6.19282'
p87
aS'      14.7042'
p88
aS'      19.8863'
p89
aS'      19.8863'
p90
aS'      7.40393'
p91
aS'      7.40393'
p92
aS'      7.84873'
p93
aS'      7.84873'
p94
aS'      5.15676'
p95
aS'      34.6809'
p96
aS'      29.6796'
p97
aS'      12.8611'
p98
aS'      12.5065'
p99
aS'      12.5065'
p100
aS'      8.61621'
p101
aS'      8.61621'
p102
aS'      12.7665'
p103
aS'      12.7665'
p104
aS'      8.61390'
p105
aS'      2.20035'
p106
aS'      2.20035'
p107
aS'      8.84034'
p108
aS'      7.29388'
p109
aS'      2.20035'
p110
aS'      8.84034'
p111
aS'      7.29388'
p112
aS'      12.7442'
p113
aS'      4.72804'
p114
aS'      14.9340'
p115
aS'      14.0098'
p116
aS'      12.0339'
p117
aS'      15.1881'
p118
aS'      15.1881'
p119
aS'      15.1881'
p120
aS'      5.53856'
p121
aS'      7.64859'
p122
aS'      7.64859'
p123
aS'      13.4141'
p124
aS'      13.4141'
p125
aS'      8.29409'
p126
aS'      21.9444'
p127
aS'      30.5888'
p128
aS'      30.5888'
p129
aS'      30.5888'
p130
aS'      31.7985'
p131
aS'nan'
p132
aS'      29.9408'
p133
aS'      14.9614'
p134
aS'      19.0098'
p135
aS'      19.0098'
p136
aS'      19.0098'
p137
aS'      8.89857'
p138
aS'      9.45131'
p139
aS'      28.9408'
p140
aS'      21.4600'
p141
aS'      12.7290'
p142
aS'      12.4340'
p143
aS'      12.4340'
p144
aS'      18.7293'
p145
aS'      23.4816'
p146
aS'      6.49163'
p147
aS'      6.49163'
p148
aS'      9.92364'
p149
aS'      13.8572'
p150
aS'      13.8572'
p151
aS'      26.5505'
p152
aS'      26.4834'
p153
aS'      26.4834'
p154
aS'      12.5941'
p155
aS'      12.5941'
p156
aS'      59.9208'
p157
aS'      59.9208'
p158
aS'      38.7480'
p159
aS'      38.7480'
p160
aS'      5.59470'
p161
aS'      5.59470'
p162
aS'      16.8558'
p163
aS'      16.8558'
p164
aS'      10.9407'
p165
aS'      60.7493'
p166
aS'      25.3259'
p167
aS'      25.3259'
p168
aS'      16.3960'
p169
aS'      19.5095'
p170
aS'      19.5095'
p171
aS'      40.8597'
p172
aS'      40.8597'
p173
aS'      36.9529'
p174
aS'      17.6233'
p175
aS'      12.5635'
p176
aS'      49.6896'
p177
aS'      42.3571'
p178
aS'      37.4450'
p179
aS'      11.2085'
p180
aS'      9.69526'
p181
aS'      9.69526'
p182
aS'      10.9439'
p183
aS'      10.9439'
p184
aS'      7.35279'
p185
aS'      7.00919'
p186
aS'      56.1768'
p187
aS'      57.2883'
p188
aS'      9.35273'
p189
aS'      8.49257'
p190
aS'      8.87246'
p191
aS'      37.6793'
p192
aS'      26.0659'
p193
aS'      14.5661'
p194
aS'      9.78629'
p195
aS'      8.88509'
p196
aS'      5.99596'
p197
aS'      36.1846'
p198
aS'      21.1185'
p199
aS'      26.5349'
p200
aS'      27.4558'
p201
aS'      19.7148'
p202
aS'      25.5585'
p203
aS'      21.1134'
p204
aS'      14.8205'
p205
aS'      6.50880'
p206
aS'      7.89432'
p207
aS'      2.99531'
p208
aS'      14.7735'
p209
aS'      25.5887'
p210
aS'      13.3810'
p211
aS'      13.3810'
p212
aS'      28.6060'
p213
aS'      28.6060'
p214
aS'      15.2975'
p215
aS'      9.90444'
p216
aS'      45.0236'
p217
aS'      7.29395'
p218
aS'      18.1237'
p219
aS'      18.1237'
p220
aS'      6.86987'
p221
aS'      6.86987'
p222
aS'      3.68862'
p223
aS'      1.41484'
p224
asS'Datetimes'
p225
(dp226
S'Obs_start_time'
p227
(lp228
cdatetime
datetime
p229
(S'\x07\xd7\x05\x1e\r57\x00\x00\x00'
p230
tp231
Rp232
ag229
(S'\x07\xd7\x06\x02\n!/\x00\x00\x00'
p233
tp234
Rp235
ag229
(S'\x07\xd7\x06\x03\x06+-\x00\x00\x00'
p236
tp237
Rp238
ag229
(S'\x07\xd7\x07\n\x0c&&\x00\x00\x00'
p239
tp240
Rp241
ag229
(S'\x07\xda\x02\x06\x0f%\x13\x00\x00\x00'
p242
tp243
Rp244
ag229
(S'\x07\xda\x02\x08\r0+\x00\x00\x00'
p245
tp246
Rp247
ag229
(S'\x07\xda\x0b\x03\x0c\x13\x04\x00\x00\x00'
p248
tp249
Rp250
ag229
(S"\x07\xda\x0b\x06\x0f'\x0e\x00\x00\x00"
p251
tp252
Rp253
ag229
(S'\x07\xdb\x02\x0e\x0f42\x00\x00\x00'
p254
tp255
Rp256
ag229
(S'\x07\xdb\x02\x0e\x0f42\x00\x00\x00'
p257
tp258
Rp259
ag229
(S'\x07\xdb\x02\x0e\x0f42\x00\x00\x00'
p260
tp261
Rp262
ag229
(S'\x07\xdb\x02\x13\x03\x00$\x00\x00\x00'
p263
tp264
Rp265
ag229
(S'\x07\xdb\x02\x13\x0c\x00$\x00\x00\x00'
p266
tp267
Rp268
ag229
(S'\x07\xdb\x02\x13\x0c\x00$\x00\x00\x00'
p269
tp270
Rp271
ag229
(S'\x07\xdb\x02\x13\x0c\x00$\x00\x00\x00'
p272
tp273
Rp274
ag229
(S'\x07\xdb\x02\x18\x07&\x18\x00\x00\x00'
p275
tp276
Rp277
ag229
(S'\x07\xdb\x03\x06\x12\x10!\x00\x00\x00'
p278
tp279
Rp280
ag229
(S'\x07\xdb\x04\x10\x0e\x04\x1c\x00\x00\x00'
p281
tp282
Rp283
ag229
(S'\x07\xdb\x04\x16\x0445\x00\x00\x00'
p284
tp285
Rp286
ag229
(S'\x07\xdb\x04\x16\x0b\x17\x17\x00\x00\x00'
p287
tp288
Rp289
ag229
(S'\x07\xdb\x07\x1c\x0c\t\x15\x00\x00\x00'
p290
tp291
Rp292
ag229
(S'\x07\xdb\x08\x08\x12\x08\x19\x00\x00\x00'
p293
tp294
Rp295
ag229
(S'\x07\xdb\x08\t\x08\x06\x17\x00\x00\x00'
p296
tp297
Rp298
ag229
(S'\x07\xdb\x08\t\x08\x0b\x17\x00\x00\x00'
p299
tp300
Rp301
ag229
(S'\x07\xdb\t\n\x07\x1b1\x00\x00\x00'
p302
tp303
Rp304
ag229
(S'\x07\xdb\t\r\x1174\x00\x00\x00'
p305
tp306
Rp307
ag229
(S'\x07\xdb\t\x10\x0b#\x08\x00\x00\x00'
p308
tp309
Rp310
ag229
(S'\x07\xdb\t\x13\x04\x1f\x06\x00\x00\x00'
p311
tp312
Rp313
ag229
(S'\x07\xdb\t\x14\x0c$\x1a\x00\x00\x00'
p314
tp315
Rp316
ag229
(S'\x07\xdb\t\x14\x0c$\x1a\x00\x00\x00'
p317
tp318
Rp319
ag229
(S'\x07\xdb\t\x15\x0c\x14,\x00\x00\x00'
p320
tp321
Rp322
ag229
(S'\x07\xdb\t\x19\x07\x05\x03\x00\x00\x00'
p323
tp324
Rp325
ag229
(S'\x07\xdb\t\x19\x08(\x03\x00\x00\x00'
p326
tp327
Rp328
ag229
(S'\x07\xdb\t\x19\x08(\x03\x00\x00\x00'
p329
tp330
Rp331
ag229
(S'\x07\xdb\t\x19\t(\x03\x00\x00\x00'
p332
tp333
Rp334
ag229
(S'\x07\xdb\t\x19\n\x1e\x03\x00\x00\x00'
p335
tp336
Rp337
ag229
(S'\x07\xdb\t\x19\n\x1e\x03\x00\x00\x00'
p338
tp339
Rp340
ag229
(S'\x07\xdb\t\x19\x0f\x0c&\x00\x00\x00'
p341
tp342
Rp343
ag229
(S'\x07\xdb\t\x19\x10\x11&\x00\x00\x00'
p344
tp345
Rp346
ag229
(S'\x07\xdb\t\x19\x0f\x0c&\x00\x00\x00'
p347
tp348
Rp349
ag229
(S'\x07\xdb\t\x19\x10\x11&\x00\x00\x00'
p350
tp351
Rp352
ag229
(S'\x07\xdb\t\x19\x10\x11&\x00\x00\x00'
p353
tp354
Rp355
ag229
(S'\x07\xdb\t\x19\x16\x16&\x00\x00\x00'
p356
tp357
Rp358
ag229
(S'\x07\xdb\t\x1d\x0c\n\r\x00\x00\x00'
p359
tp360
Rp361
ag229
(S'\x07\xdb\t\x1e\x03\x0c\x19\x00\x00\x00'
p362
tp363
Rp364
ag229
(S'\x07\xdb\t\x1e\x161\x08\x00\x00\x00'
p365
tp366
Rp367
ag229
(S'\x07\xdb\n\x11\r\x17\x06\x00\x00\x00'
p368
tp369
Rp370
ag229
(S'\x07\xdb\n\x11\x0e\x15\x1a\x00\x00\x00'
p371
tp372
Rp373
ag229
(S'\x07\xdb\x0b\x03\x0b\t\x1a\x00\x00\x00'
p374
tp375
Rp376
ag229
(S'\x07\xdb\x0b\x06\x01\t\x12\x00\x00\x00'
p377
tp378
Rp379
ag229
(S'\x07\xdb\x0b\x0f\x0c-\x1e\x00\x00\x00'
p380
tp381
Rp382
ag229
(S'\x07\xdb\x0c\r\x17&%\x00\x00\x00'
p383
tp384
Rp385
ag229
(S'\x07\xdb\x0c\x19\x0b\x1a\x15\x00\x00\x00'
p386
tp387
Rp388
ag229
(S'\x07\xdb\x0c\x19\x12\x0f9\x00\x00\x00'
p389
tp390
Rp391
ag229
(S'\x07\xdb\x0c\x19\x14\x1e9\x00\x00\x00'
p392
tp393
Rp394
ag229
(S'\x07\xdb\x0c\x1a\x14\x14\x18\x00\x00\x00'
p395
tp396
Rp397
ag229
(S'\x07\xdb\x0c\x1b\x13\x1d"\x00\x00\x00'
p398
tp399
Rp400
ag229
(S'\x07\xdb\x0c\x1e\x14\x16"\x00\x00\x00'
p401
tp402
Rp403
ag229
(S'\x07\xdb\x0c\x1e\x14\x16"\x00\x00\x00'
p404
tp405
Rp406
ag229
(S'\x07\xdc\x01\x0b\x04.$\x00\x00\x00'
p407
tp408
Rp409
ag229
(S'\x07\xdc\x01\x10\n\x1a\x19\x00\x00\x00'
p410
tp411
Rp412
ag229
(S'\x07\xdc\x03\r\x00%0\x00\x00\x00'
p413
tp414
Rp415
ag229
(S'\x07\xdc\x03\x17\x10&0\x00\x00\x00'
p416
tp417
Rp418
ag229
(S'\x07\xdc\x03\x17\x10&0\x00\x00\x00'
p419
tp420
Rp421
ag229
(S'\x07\xdc\x03\x17\x13&0\x00\x00\x00'
p422
tp423
Rp424
ag229
(S'\x07\xdc\x03\x17\x13&0\x00\x00\x00'
p425
tp426
Rp427
ag229
(S'\x07\xdc\x04\x1b\x08\x156\x00\x00\x00'
p428
tp429
Rp430
ag229
(S'\x07\xdc\x05\x07\x0e\x16\x1a\x00\x00\x00'
p431
tp432
Rp433
ag229
(S'\x07\xdc\x05\r\x04\x07&\x00\x00\x00'
p434
tp435
Rp436
ag229
(S'\x07\xdc\x05\x19\x16"%\x00\x00\x00'
p437
tp438
Rp439
ag229
(S'\x07\xdc\x06\x19\x12\x1a\x10\x00\x00\x00'
p440
tp441
Rp442
ag229
(S'\x07\xdc\x06\x19\x12\x1a\x10\x00\x00\x00'
p443
tp444
Rp445
ag229
(S'\x07\xdc\x06\x1d\x01\x15&\x00\x00\x00'
p446
tp447
Rp448
ag229
(S'\x07\xdc\x06\x1d\x04\x0e\x08\x00\x00\x00'
p449
tp450
Rp451
ag229
(S'\x07\xdc\x06\x1d\x06.\r\x00\x00\x00'
p452
tp453
Rp454
ag229
(S'\x07\xdc\x07\x01\x0f1\x12\x00\x00\x00'
p455
tp456
Rp457
ag229
(S'\x07\xdc\x07\x01\x0f1\x12\x00\x00\x00'
p458
tp459
Rp460
ag229
(S'\x07\xdc\x07\x01\x0f1\x12\x00\x00\x00'
p461
tp462
Rp463
ag229
(S'\x07\xdc\x07\x01\x13\x0e+\x00\x00\x00'
p464
tp465
Rp466
ag229
(S'\x07\xdc\x07\x08\r\x044\x00\x00\x00'
p467
tp468
Rp469
ag229
(S'\x07\xdc\x07\x08\r\x044\x00\x00\x00'
p470
tp471
Rp472
ag229
(S'\x07\xdc\x07\x08\x11#\x0c\x00\x00\x00'
p473
tp474
Rp475
ag229
(S'\x07\xdc\x07\x08\x11#\x0c\x00\x00\x00'
p476
tp477
Rp478
ag229
(S'\x07\xdc\x07\t\x17\t\x10\x00\x00\x00'
p479
tp480
Rp481
ag229
(S'\x07\xdc\x07\t\x17\t\x10\x00\x00\x00'
p482
tp483
Rp484
ag229
(S'\x07\xdc\x07\n\x04($\x00\x00\x00'
p485
tp486
Rp487
ag229
(S'\x07\xdc\x07\n\x05\x07\x10\x00\x00\x00'
p488
tp489
Rp490
ag229
(S'\x07\xdc\x07\n\x06\x178\x00\x00\x00'
p491
tp492
Rp493
ag229
(S'\x07\xdc\x07\n\x0c\x178\x00\x00\x00'
p494
tp495
Rp496
ag229
(S'\x07\xdc\x07\n\x0c+8\x00\x00\x00'
p497
tp498
Rp499
ag229
(S'\x07\xdc\x07\n\x0c+8\x00\x00\x00'
p500
tp501
Rp502
ag229
(S'\x07\xdc\x07\n\r+8\x00\x00\x00'
p503
tp504
Rp505
ag229
(S'\x07\xdc\x07\n\r+8\x00\x00\x00'
p506
tp507
Rp508
ag229
(S'\x07\xdc\x07\n\x0f/\x10\x00\x00\x00'
p509
tp510
Rp511
ag229
(S'\x07\xdc\x07\n\x0f/\x10\x00\x00\x00'
p512
tp513
Rp514
ag229
(S'\x07\xdc\x07\x10\x1323\x00\x00\x00'
p515
tp516
Rp517
ag229
(S'\x07\xdc\x07\x11\x0f\x1d\x1f\x00\x00\x00'
p518
tp519
Rp520
ag229
(S'\x07\xdc\x07\x11\x0f\x1d\x1f\x00\x00\x00'
p521
tp522
Rp523
ag229
(S'\x07\xdc\x07\x11\x0f:\x0b\x00\x00\x00'
p524
tp525
Rp526
ag229
(S'\x07\xdc\x07\x11\x100\x0b\x00\x00\x00'
p527
tp528
Rp529
ag229
(S'\x07\xdc\x07\x11\x0f\x1d\x1f\x00\x00\x00'
p530
tp531
Rp532
ag229
(S'\x07\xdc\x07\x11\x0f:\x0b\x00\x00\x00'
p533
tp534
Rp535
ag229
(S'\x07\xdc\x07\x11\x100\x0b\x00\x00\x00'
p536
tp537
Rp538
ag229
(S'\x07\xdc\x07\x13\x05\x15!\x00\x00\x00'
p539
tp540
Rp541
ag229
(S'\x07\xdc\x07\x18\x13\x04;\x00\x00\x00'
p542
tp543
Rp544
ag229
(S'\x07\xdc\x07\x1b\x11\x19-\x00\x00\x00'
p545
tp546
Rp547
ag229
(S'\x07\xdc\x07\x1c\x144\x1b\x00\x00\x00'
p548
tp549
Rp550
ag229
(S'\x07\xdc\x07\x1d\x06\x17\x03\x00\x00\x00'
p551
tp552
Rp553
ag229
(S'\x07\xdc\x07\x1e\x06\t-\x00\x00\x00'
p554
tp555
Rp556
ag229
(S'\x07\xdc\x07\x1e\x06\t-\x00\x00\x00'
p557
tp558
Rp559
ag229
(S'\x07\xdc\x07\x1e\x06\t-\x00\x00\x00'
p560
tp561
Rp562
ag229
(S'\x07\xdc\x07\x1f\x0e\x17\x07\x00\x00\x00'
p563
tp564
Rp565
ag229
(S'\x07\xdc\x08\t\x0b,4\x00\x00\x00'
p566
tp567
Rp568
ag229
(S'\x07\xdc\x08\t\x0b,4\x00\x00\x00'
p569
tp570
Rp571
ag229
(S'\x07\xdc\x08\n\x04\x0e7\x00\x00\x00'
p572
tp573
Rp574
ag229
(S'\x07\xdc\x08\n\x04\x0e7\x00\x00\x00'
p575
tp576
Rp577
ag229
(S'\x07\xdc\x08\x0b\x0c\x12:\x00\x00\x00'
p578
tp579
Rp580
ag229
(S'\x07\xdc\x08\x13\x04)\x11\x00\x00\x00'
p581
tp582
Rp583
ag229
(S'\x07\xdc\t\x01\x12\x1c%\x00\x00\x00'
p584
tp585
Rp586
ag229
(S'\x07\xdc\t\x01\x12\x1c%\x00\x00\x00'
p587
tp588
Rp589
ag229
(S'\x07\xdc\t\x01\x12\x1c%\x00\x00\x00'
p590
tp591
Rp592
ag229
(S'\x07\xdc\t\x06\x0f\x17-\x00\x00\x00'
p593
tp594
Rp595
ag229
(S'\x07\xdc\t\x07\x11 \x0b\x00\x00\x00'
p596
tp597
Rp598
ag229
(S'\x07\xdc\t\x07\x11(\x16\x00\x00\x00'
p599
tp600
Rp601
ag229
(S'\x07\xdc\t\x0c\x06\x0e:\x00\x00\x00'
p602
tp603
Rp604
ag229
(S'\x07\xdc\t\x0c\x0b\x148\x00\x00\x00'
p605
tp606
Rp607
ag229
(S'\x07\xdc\t\x0c\x0b\x148\x00\x00\x00'
p608
tp609
Rp610
ag229
(S'\x07\xdc\t\x0c\x0b\x148\x00\x00\x00'
p611
tp612
Rp613
ag229
(S'\x07\xdc\t\x11\x06\x13\x10\x00\x00\x00'
p614
tp615
Rp616
ag229
(S'\x07\xdc\t\x11\r78\x00\x00\x00'
p617
tp618
Rp619
ag229
(S'\x07\xdc\t\x1e\x0b(\x1a\x00\x00\x00'
p620
tp621
Rp622
ag229
(S'\x07\xdc\t\x1e\x0c\n\x1a\x00\x00\x00'
p623
tp624
Rp625
ag229
(S'\x07\xdc\n\x01\x14/-\x00\x00\x00'
p626
tp627
Rp628
ag229
(S'\x07\xdc\n\x07\x14\x1b*\x00\x00\x00'
p629
tp630
Rp631
ag229
(S'\x07\xdc\n\x07\x14\x1b*\x00\x00\x00'
p632
tp633
Rp634
ag229
(S'\x07\xdc\n\x0f\x04\x15-\x00\x00\x00'
p635
tp636
Rp637
ag229
(S'\x07\xdc\n\x11\x08\x05/\x00\x00\x00'
p638
tp639
Rp640
ag229
(S'\x07\xdc\n\x13\x144\x1e\x00\x00\x00'
p641
tp642
Rp643
ag229
(S'\x07\xdc\n\x13\x144\x1e\x00\x00\x00'
p644
tp645
Rp646
ag229
(S'\x07\xdc\n\x14\x12\x0b\x17\x00\x00\x00'
p647
tp648
Rp649
ag229
(S'\x07\xdc\n\x15\x03\x06\x11\x00\x00\x00'
p650
tp651
Rp652
ag229
(S'\x07\xdc\n\x15\x03\x06\x11\x00\x00\x00'
p653
tp654
Rp655
ag229
(S'\x07\xdc\n\x15\x05 9\x00\x00\x00'
p656
tp657
Rp658
ag229
(S'\x07\xdc\n\x15\x14\x029\x00\x00\x00'
p659
tp660
Rp661
ag229
(S'\x07\xdc\n\x15\x14\x029\x00\x00\x00'
p662
tp663
Rp664
ag229
(S'\x07\xdc\n\x16\x10\x06\x13\x00\x00\x00'
p665
tp666
Rp667
ag229
(S'\x07\xdc\n\x16\x10\x06\x13\x00\x00\x00'
p668
tp669
Rp670
ag229
(S"\x07\xdc\n\x16\x121'\x00\x00\x00"
p671
tp672
Rp673
ag229
(S"\x07\xdc\n\x16\x121'\x00\x00\x00"
p674
tp675
Rp676
ag229
(S'\x07\xdc\n\x17\x03\x1d1\x00\x00\x00'
p677
tp678
Rp679
ag229
(S'\x07\xdc\n\x17\x03\x1d1\x00\x00\x00'
p680
tp681
Rp682
ag229
(S'\x07\xdc\x0b\x07\x074\x1c\x00\x00\x00'
p683
tp684
Rp685
ag229
(S'\x07\xdc\x0b\x07\x074\x1c\x00\x00\x00'
p686
tp687
Rp688
ag229
(S'\x07\xdc\x0b\x07\r\x03\x08\x00\x00\x00'
p689
tp690
Rp691
ag229
(S'\x07\xdc\x0b\x07\r\x03\x08\x00\x00\x00'
p692
tp693
Rp694
ag229
(S"\x07\xdc\x0b\x0b\x02\x1e'\x00\x00\x00"
p695
tp696
Rp697
ag229
(S'\x07\xdc\x0b\r\x051(\x00\x00\x00'
p698
tp699
Rp700
ag229
(S'\x07\xdc\x0b\x0f\x04#\x1a\x00\x00\x00'
p701
tp702
Rp703
ag229
(S'\x07\xdc\x0b\x0f\x04#\x1a\x00\x00\x00'
p704
tp705
Rp706
ag229
(S'\x07\xdc\x0b\x12\x04\t\x1f\x00\x00\x00'
p707
tp708
Rp709
ag229
(S'\x07\xdc\x0b\x14\x0c(4\x00\x00\x00'
p710
tp711
Rp712
ag229
(S'\x07\xdc\x0b\x14\x0c(4\x00\x00\x00'
p713
tp714
Rp715
ag229
(S'\x07\xdc\x0b\x15\x066\x0c\x00\x00\x00'
p716
tp717
Rp718
ag229
(S'\x07\xdc\x0b\x15\x066\x0c\x00\x00\x00'
p719
tp720
Rp721
ag229
(S'\x07\xdc\x0b\x15\x0f\x1a3\x00\x00\x00'
p722
tp723
Rp724
ag229
(S'\x07\xdc\x0b\x1b\x15\x1a\x18\x00\x00\x00'
p725
tp726
Rp727
ag229
(S'\x07\xdc\x0b\x1b\x17\x17\x04\x00\x00\x00'
p728
tp729
Rp730
ag229
(S'\x07\xdc\x0b\x1c\x0c\x17\x02\x00\x00\x00'
p731
tp732
Rp733
ag229
(S'\x07\xdc\x0b\x1c\x15$\x16\x00\x00\x00'
p734
tp735
Rp736
ag229
(S'\x07\xdc\x0b\x1d\x07\t(\x00\x00\x00'
p737
tp738
Rp739
ag229
(S"\x07\xdd\x01\t\x0e'3\x00\x00\x00"
p740
tp741
Rp742
ag229
(S'\x07\xdd\x03\x0f\x06&5\x00\x00\x00'
p743
tp744
Rp745
ag229
(S'\x07\xdd\x03\x0f\x06&5\x00\x00\x00'
p746
tp747
Rp748
ag229
(S'\x07\xdd\x03\x12\x03\x13\x1a\x00\x00\x00'
p749
tp750
Rp751
ag229
(S'\x07\xdd\x03\x12\x03\x13\x1a\x00\x00\x00'
p752
tp753
Rp754
ag229
(S'\x07\xdd\x03\x14\x01\x00\x02\x00\x00\x00'
p755
tp756
Rp757
ag229
(S'\x07\xdd\x03\x14\x13\r\x16\x00\x00\x00'
p758
tp759
Rp760
ag229
(S'\x07\xdd\x04\x0b\x07\r8\x00\x00\x00'
p761
tp762
Rp763
ag229
(S'\x07\xdd\x04\x0b\x07\x11\x10\x00\x00\x00'
p764
tp765
Rp766
ag229
(S'\x07\xdd\x04\x0b\n+8\x00\x00\x00'
p767
tp768
Rp769
ag229
(S'\x07\xdd\x04\x0c\x13\x14%\x00\x00\x00'
p770
tp771
Rp772
ag229
(S'\x07\xdd\x04\x12\x12\x120\x00\x00\x00'
p773
tp774
Rp775
ag229
(S'\x07\xdd\x04\x16\n\x1e\x11\x00\x00\x00'
p776
tp777
Rp778
ag229
(S"\x07\xdd\x04\x17\x0e\r'\x00\x00\x00"
p779
tp780
Rp781
ag229
(S'\x07\xdd\x04\x19\x15"#\x00\x00\x00'
p782
tp783
Rp784
ag229
(S'\x07\xdd\x04\x19\x16\x01\x0f\x00\x00\x00'
p785
tp786
Rp787
ag229
(S'\x07\xdd\x04\x1a\x06\x1b:\x00\x00\x00'
p788
tp789
Rp790
ag229
(S'\x07\xdd\x04\x1a\x069:\x00\x00\x00'
p791
tp792
Rp793
ag229
(S'\x07\xdd\x04\x1b\n3\x14\x00\x00\x00'
p794
tp795
Rp796
ag229
(S'\x07\xdd\x04\x1b\x0c\x0b\x14\x00\x00\x00'
p797
tp798
Rp799
ag229
(S'\x07\xdd\x04\x1b\x0f\x0b\x14\x00\x00\x00'
p800
tp801
Rp802
ag229
(S'\x07\xdd\x04\x1d\t\x0f\x1a\x00\x00\x00'
p803
tp804
Rp805
ag229
(S'\x07\xdd\x04\x1d\x13*\x06\x00\x00\x00'
p806
tp807
Rp808
ag229
(S'\x07\xdd\x04\x1e\x08;\x1d\x00\x00\x00'
p809
tp810
Rp811
ag229
(S'\x07\xdd\x05\x01\x058\x0c\x00\x00\x00'
p812
tp813
Rp814
ag229
(S'\x07\xdd\x05\x01\x06\x10\x0c\x00\x00\x00'
p815
tp816
Rp817
ag229
(S'\x07\xdd\x05\x03\x108:\x00\x00\x00'
p818
tp819
Rp820
ag229
(S'\x07\xdd\x05\x04\x04\x03(\x00\x00\x00'
p821
tp822
Rp823
ag229
(S'\x07\xdd\x05\t\x10%4\x00\x00\x00'
p824
tp825
Rp826
ag229
(S'\x07\xdd\x05\x10\x16\x0f\x1b\x00\x00\x00'
p827
tp828
Rp829
ag229
(S'\x07\xdd\x05\x12\x14\n\x07\x00\x00\x00'
p830
tp831
Rp832
ag229
(S'\x07\xdd\x05\x12\x15\x00\x07\x00\x00\x00'
p833
tp834
Rp835
ag229
(S'\x07\xdd\x05\x12\x15\x00\x07\x00\x00\x00'
p836
tp837
Rp838
ag229
(S'\x07\xdd\x05\x13\x11\x17\x1a\x00\x00\x00'
p839
tp840
Rp841
ag229
(S'\x07\xdd\x05\x13\x11\x17\x1a\x00\x00\x00'
p842
tp843
Rp844
ag229
(S'\x07\xdd\x05\x13\x11..\x00\x00\x00'
p845
tp846
Rp847
ag229
(S'\x07\xdd\x05\x16\x006\x02\x00\x00\x00'
p848
tp849
Rp850
ag229
(S'\x07\xdd\x05\x17\x0e3\x14\x00\x00\x00'
p851
tp852
Rp853
ag229
(S'\x07\xdd\x05\x1f\x14\x01\x00\x00\x00\x00'
p854
tp855
Rp856
ag229
(S'\x07\xdd\x06\x03\x07\x15\x1f\x00\x00\x00'
p857
tp858
Rp859
ag229
(S'\x07\xdd\x06\x03\x07\x15\x1f\x00\x00\x00'
p860
tp861
Rp862
ag229
(S'\x07\xdd\x06\x13\t0\x0f\x00\x00\x00'
p863
tp864
Rp865
ag229
(S'\x07\xdd\x06\x13\t0\x0f\x00\x00\x00'
p866
tp867
Rp868
ag229
(S'\x07\xdd\x06\x1c\x03&0\x00\x00\x00'
p869
tp870
Rp871
ag229
(S'\x07\xdd\x07\x04\x00\x04\t\x00\x00\x00'
p872
tp873
Rp874
asS'Obs_end_time'
p875
(lp876
g229
(S'\x07\xd7\x05\x1e\r6\x0b\x00\x00\x00'
p877
tp878
Rp879
ag229
(S'\x07\xd7\x06\x02\n"\x03\x00\x00\x00'
p880
tp881
Rp882
ag229
(S'\x07\xd7\x06\x03\x06,\x01\x00\x00\x00'
p883
tp884
Rp885
ag229
(S'\x07\xd7\x07\n\x0c&6\x00\x00\x00'
p886
tp887
Rp888
ag229
(S'\x07\xda\x02\x06\x0f%#\x00\x00\x00'
p889
tp890
Rp891
ag229
(S'\x07\xda\x02\x08\r0;\x00\x00\x00'
p892
tp893
Rp894
ag229
(S'\x07\xda\x0b\x03\x0c\x13\x14\x00\x00\x00'
p895
tp896
Rp897
ag229
(S"\x07\xda\x0b\x06\x0f'\x1e\x00\x00\x00"
p898
tp899
Rp900
ag229
(S'\x07\xdb\x02\x0e\x0f5\x06\x00\x00\x00'
p901
tp902
Rp903
ag229
(S'\x07\xdb\x02\x0e\x0f5\x06\x00\x00\x00'
p904
tp905
Rp906
ag229
(S'\x07\xdb\x02\x0e\x0f5\x06\x00\x00\x00'
p907
tp908
Rp909
ag229
(S'\x07\xdb\x02\x13\x03\x004\x00\x00\x00'
p910
tp911
Rp912
ag229
(S'\x07\xdb\x02\x13\x0c\x004\x00\x00\x00'
p913
tp914
Rp915
ag229
(S'\x07\xdb\x02\x13\x0c\x004\x00\x00\x00'
p916
tp917
Rp918
ag229
(S'\x07\xdb\x02\x13\x0c\x004\x00\x00\x00'
p919
tp920
Rp921
ag229
(S'\x07\xdb\x02\x18\x07&(\x00\x00\x00'
p922
tp923
Rp924
ag229
(S'\x07\xdb\x03\x06\x12\x101\x00\x00\x00'
p925
tp926
Rp927
ag229
(S'\x07\xdb\x04\x10\x0e\x04,\x00\x00\x00'
p928
tp929
Rp930
ag229
(S'\x07\xdb\x04\x16\x045\t\x00\x00\x00'
p931
tp932
Rp933
ag229
(S"\x07\xdb\x04\x16\x0b\x17'\x00\x00\x00"
p934
tp935
Rp936
ag229
(S'\x07\xdb\x07\x1c\x0c\t%\x00\x00\x00'
p937
tp938
Rp939
ag229
(S'\x07\xdb\x08\x08\x12\x08)\x00\x00\x00'
p940
tp941
Rp942
ag229
(S"\x07\xdb\x08\t\x08\x06'\x00\x00\x00"
p943
tp944
Rp945
ag229
(S"\x07\xdb\x08\t\x08\x0b'\x00\x00\x00"
p946
tp947
Rp948
ag229
(S'\x07\xdb\t\n\x07\x1c\x05\x00\x00\x00'
p949
tp950
Rp951
ag229
(S'\x07\xdb\t\r\x118\x08\x00\x00\x00'
p952
tp953
Rp954
ag229
(S'\x07\xdb\t\x10\x0b#\x18\x00\x00\x00'
p955
tp956
Rp957
ag229
(S'\x07\xdb\t\x13\x04\x1f\x16\x00\x00\x00'
p958
tp959
Rp960
ag229
(S'\x07\xdb\t\x14\x0c$*\x00\x00\x00'
p961
tp962
Rp963
ag229
(S'\x07\xdb\t\x14\x0c$*\x00\x00\x00'
p964
tp965
Rp966
ag229
(S'\x07\xdb\t\x15\x0c\x15\x00\x00\x00\x00'
p967
tp968
Rp969
ag229
(S'\x07\xdb\t\x19\x07\x05\x13\x00\x00\x00'
p970
tp971
Rp972
ag229
(S'\x07\xdb\t\x19\x08(\x13\x00\x00\x00'
p973
tp974
Rp975
ag229
(S'\x07\xdb\t\x19\x08(\x13\x00\x00\x00'
p976
tp977
Rp978
ag229
(S'\x07\xdb\t\x19\t(\x13\x00\x00\x00'
p979
tp980
Rp981
ag229
(S'\x07\xdb\t\x19\n\x1e\x13\x00\x00\x00'
p982
tp983
Rp984
ag229
(S'\x07\xdb\t\x19\n\x1e\x13\x00\x00\x00'
p985
tp986
Rp987
ag229
(S'\x07\xdb\t\x19\x0f\x0c6\x00\x00\x00'
p988
tp989
Rp990
ag229
(S'\x07\xdb\t\x19\x10\x116\x00\x00\x00'
p991
tp992
Rp993
ag229
(S'\x07\xdb\t\x19\x0f\x0c6\x00\x00\x00'
p994
tp995
Rp996
ag229
(S'\x07\xdb\t\x19\x10\x116\x00\x00\x00'
p997
tp998
Rp999
ag229
(S'\x07\xdb\t\x19\x10\x116\x00\x00\x00'
p1000
tp1001
Rp1002
ag229
(S'\x07\xdb\t\x19\x16\x166\x00\x00\x00'
p1003
tp1004
Rp1005
ag229
(S'\x07\xdb\t\x1d\x0c\n\x1d\x00\x00\x00'
p1006
tp1007
Rp1008
ag229
(S'\x07\xdb\t\x1e\x03\x0c)\x00\x00\x00'
p1009
tp1010
Rp1011
ag229
(S'\x07\xdb\t\x1e\x161\x18\x00\x00\x00'
p1012
tp1013
Rp1014
ag229
(S'\x07\xdb\n\x11\r\x17\x16\x00\x00\x00'
p1015
tp1016
Rp1017
ag229
(S'\x07\xdb\n\x11\x0e\x15*\x00\x00\x00'
p1018
tp1019
Rp1020
ag229
(S'\x07\xdb\x0b\x03\x0b\t*\x00\x00\x00'
p1021
tp1022
Rp1023
ag229
(S'\x07\xdb\x0b\x06\x01\t"\x00\x00\x00'
p1024
tp1025
Rp1026
ag229
(S'\x07\xdb\x0b\x0f\x0c-.\x00\x00\x00'
p1027
tp1028
Rp1029
ag229
(S'\x07\xdb\x0c\r\x17&5\x00\x00\x00'
p1030
tp1031
Rp1032
ag229
(S'\x07\xdb\x0c\x19\x0b\x1a%\x00\x00\x00'
p1033
tp1034
Rp1035
ag229
(S'\x07\xdb\x0c\x19\x12\x10\r\x00\x00\x00'
p1036
tp1037
Rp1038
ag229
(S'\x07\xdb\x0c\x19\x14\x1f\r\x00\x00\x00'
p1039
tp1040
Rp1041
ag229
(S'\x07\xdb\x0c\x1a\x14\x14(\x00\x00\x00'
p1042
tp1043
Rp1044
ag229
(S'\x07\xdb\x0c\x1b\x13\x1d2\x00\x00\x00'
p1045
tp1046
Rp1047
ag229
(S'\x07\xdb\x0c\x1e\x14\x162\x00\x00\x00'
p1048
tp1049
Rp1050
ag229
(S'\x07\xdb\x0c\x1e\x14\x162\x00\x00\x00'
p1051
tp1052
Rp1053
ag229
(S'\x07\xdc\x01\x0b\x04.4\x00\x00\x00'
p1054
tp1055
Rp1056
ag229
(S'\x07\xdc\x01\x10\n\x1a)\x00\x00\x00'
p1057
tp1058
Rp1059
ag229
(S'\x07\xdc\x03\r\x00&\x04\x00\x00\x00'
p1060
tp1061
Rp1062
ag229
(S"\x07\xdc\x03\x17\x10'\x04\x00\x00\x00"
p1063
tp1064
Rp1065
ag229
(S"\x07\xdc\x03\x17\x10'\x04\x00\x00\x00"
p1066
tp1067
Rp1068
ag229
(S"\x07\xdc\x03\x17\x13'\x04\x00\x00\x00"
p1069
tp1070
Rp1071
ag229
(S"\x07\xdc\x03\x17\x13'\x04\x00\x00\x00"
p1072
tp1073
Rp1074
ag229
(S'\x07\xdc\x04\x1b\x08\x16\n\x00\x00\x00'
p1075
tp1076
Rp1077
ag229
(S'\x07\xdc\x05\x07\x0e\x16*\x00\x00\x00'
p1078
tp1079
Rp1080
ag229
(S'\x07\xdc\x05\r\x04\x076\x00\x00\x00'
p1081
tp1082
Rp1083
ag229
(S'\x07\xdc\x05\x19\x16"5\x00\x00\x00'
p1084
tp1085
Rp1086
ag229
(S'\x07\xdc\x06\x19\x12\x1a \x00\x00\x00'
p1087
tp1088
Rp1089
ag229
(S'\x07\xdc\x06\x19\x12\x1a \x00\x00\x00'
p1090
tp1091
Rp1092
ag229
(S'\x07\xdc\x06\x1d\x01\x156\x00\x00\x00'
p1093
tp1094
Rp1095
ag229
(S'\x07\xdc\x06\x1d\x04\x0e\x18\x00\x00\x00'
p1096
tp1097
Rp1098
ag229
(S'\x07\xdc\x06\x1d\x06.\x1d\x00\x00\x00'
p1099
tp1100
Rp1101
ag229
(S'\x07\xdc\x07\x01\x0f1"\x00\x00\x00'
p1102
tp1103
Rp1104
ag229
(S'\x07\xdc\x07\x01\x0f1"\x00\x00\x00'
p1105
tp1106
Rp1107
ag229
(S'\x07\xdc\x07\x01\x0f1"\x00\x00\x00'
p1108
tp1109
Rp1110
ag229
(S'\x07\xdc\x07\x01\x13\x0e;\x00\x00\x00'
p1111
tp1112
Rp1113
ag229
(S'\x07\xdc\x07\x08\r\x05\x08\x00\x00\x00'
p1114
tp1115
Rp1116
ag229
(S'\x07\xdc\x07\x08\r\x05\x08\x00\x00\x00'
p1117
tp1118
Rp1119
ag229
(S'\x07\xdc\x07\x08\x11#\x1c\x00\x00\x00'
p1120
tp1121
Rp1122
ag229
(S'\x07\xdc\x07\x08\x11#\x1c\x00\x00\x00'
p1123
tp1124
Rp1125
ag229
(S'\x07\xdc\x07\t\x17\t \x00\x00\x00'
p1126
tp1127
Rp1128
ag229
(S'\x07\xdc\x07\t\x17\t \x00\x00\x00'
p1129
tp1130
Rp1131
ag229
(S'\x07\xdc\x07\n\x04(4\x00\x00\x00'
p1132
tp1133
Rp1134
ag229
(S'\x07\xdc\x07\n\x05\x07 \x00\x00\x00'
p1135
tp1136
Rp1137
ag229
(S'\x07\xdc\x07\n\x06\x18\x0c\x00\x00\x00'
p1138
tp1139
Rp1140
ag229
(S'\x07\xdc\x07\n\x0c\x18\x0c\x00\x00\x00'
p1141
tp1142
Rp1143
ag229
(S'\x07\xdc\x07\n\x0c,\x0c\x00\x00\x00'
p1144
tp1145
Rp1146
ag229
(S'\x07\xdc\x07\n\x0c,\x0c\x00\x00\x00'
p1147
tp1148
Rp1149
ag229
(S'\x07\xdc\x07\n\r,\x0c\x00\x00\x00'
p1150
tp1151
Rp1152
ag229
(S'\x07\xdc\x07\n\r,\x0c\x00\x00\x00'
p1153
tp1154
Rp1155
ag229
(S'\x07\xdc\x07\n\x0f/ \x00\x00\x00'
p1156
tp1157
Rp1158
ag229
(S'\x07\xdc\x07\n\x0f/ \x00\x00\x00'
p1159
tp1160
Rp1161
ag229
(S'\x07\xdc\x07\x10\x133\x07\x00\x00\x00'
p1162
tp1163
Rp1164
ag229
(S'\x07\xdc\x07\x11\x0f\x1d/\x00\x00\x00'
p1165
tp1166
Rp1167
ag229
(S'\x07\xdc\x07\x11\x0f\x1d/\x00\x00\x00'
p1168
tp1169
Rp1170
ag229
(S'\x07\xdc\x07\x11\x0f:\x1b\x00\x00\x00'
p1171
tp1172
Rp1173
ag229
(S'\x07\xdc\x07\x11\x100\x1b\x00\x00\x00'
p1174
tp1175
Rp1176
ag229
(S'\x07\xdc\x07\x11\x0f\x1d/\x00\x00\x00'
p1177
tp1178
Rp1179
ag229
(S'\x07\xdc\x07\x11\x0f:\x1b\x00\x00\x00'
p1180
tp1181
Rp1182
ag229
(S'\x07\xdc\x07\x11\x100\x1b\x00\x00\x00'
p1183
tp1184
Rp1185
ag229
(S'\x07\xdc\x07\x13\x05\x151\x00\x00\x00'
p1186
tp1187
Rp1188
ag229
(S'\x07\xdc\x07\x18\x13\x05\x0f\x00\x00\x00'
p1189
tp1190
Rp1191
ag229
(S'\x07\xdc\x07\x1b\x11\x1a\x01\x00\x00\x00'
p1192
tp1193
Rp1194
ag229
(S'\x07\xdc\x07\x1c\x144+\x00\x00\x00'
p1195
tp1196
Rp1197
ag229
(S'\x07\xdc\x07\x1d\x06\x17\x13\x00\x00\x00'
p1198
tp1199
Rp1200
ag229
(S'\x07\xdc\x07\x1e\x06\n\x01\x00\x00\x00'
p1201
tp1202
Rp1203
ag229
(S'\x07\xdc\x07\x1e\x06\n\x01\x00\x00\x00'
p1204
tp1205
Rp1206
ag229
(S'\x07\xdc\x07\x1e\x06\n\x01\x00\x00\x00'
p1207
tp1208
Rp1209
ag229
(S'\x07\xdc\x07\x1f\x0e\x17\x17\x00\x00\x00'
p1210
tp1211
Rp1212
ag229
(S'\x07\xdc\x08\t\x0b-\x08\x00\x00\x00'
p1213
tp1214
Rp1215
ag229
(S'\x07\xdc\x08\t\x0b-\x08\x00\x00\x00'
p1216
tp1217
Rp1218
ag229
(S'\x07\xdc\x08\n\x04\x0f\x0b\x00\x00\x00'
p1219
tp1220
Rp1221
ag229
(S'\x07\xdc\x08\n\x04\x0f\x0b\x00\x00\x00'
p1222
tp1223
Rp1224
ag229
(S'\x07\xdc\x08\x0b\x0c\x13\x0e\x00\x00\x00'
p1225
tp1226
Rp1227
ag229
(S'\x07\xdc\x08\x13\x04)!\x00\x00\x00'
p1228
tp1229
Rp1230
ag229
(S'\x07\xdc\t\x01\x12\x1c5\x00\x00\x00'
p1231
tp1232
Rp1233
ag229
(S'\x07\xdc\t\x01\x12\x1c5\x00\x00\x00'
p1234
tp1235
Rp1236
ag229
(S'\x07\xdc\t\x01\x12\x1c5\x00\x00\x00'
p1237
tp1238
Rp1239
ag229
(S'\x07\xdc\t\x06\x0f\x18\x01\x00\x00\x00'
p1240
tp1241
Rp1242
ag229
(S'\x07\xdc\t\x07\x11 \x0b\x00\x00\x00'
p1243
tp1244
Rp1245
ag229
(S'\x07\xdc\t\x07\x11(&\x00\x00\x00'
p1246
tp1247
Rp1248
ag229
(S'\x07\xdc\t\x0c\x06\x0f\x0e\x00\x00\x00'
p1249
tp1250
Rp1251
ag229
(S'\x07\xdc\t\x0c\x0b\x15\x0c\x00\x00\x00'
p1252
tp1253
Rp1254
ag229
(S'\x07\xdc\t\x0c\x0b\x15\x0c\x00\x00\x00'
p1255
tp1256
Rp1257
ag229
(S'\x07\xdc\t\x0c\x0b\x15\x0c\x00\x00\x00'
p1258
tp1259
Rp1260
ag229
(S'\x07\xdc\t\x11\x06\x13 \x00\x00\x00'
p1261
tp1262
Rp1263
ag229
(S'\x07\xdc\t\x11\r8\x0c\x00\x00\x00'
p1264
tp1265
Rp1266
ag229
(S'\x07\xdc\t\x1e\x0b(*\x00\x00\x00'
p1267
tp1268
Rp1269
ag229
(S'\x07\xdc\t\x1e\x0c\n*\x00\x00\x00'
p1270
tp1271
Rp1272
ag229
(S'\x07\xdc\n\x01\x140\x01\x00\x00\x00'
p1273
tp1274
Rp1275
ag229
(S'\x07\xdc\n\x07\x14\x1b:\x00\x00\x00'
p1276
tp1277
Rp1278
ag229
(S'\x07\xdc\n\x07\x14\x1b:\x00\x00\x00'
p1279
tp1280
Rp1281
ag229
(S'\x07\xdc\n\x0f\x04\x16\x01\x00\x00\x00'
p1282
tp1283
Rp1284
ag229
(S'\x07\xdc\n\x11\x08\x06\x03\x00\x00\x00'
p1285
tp1286
Rp1287
ag229
(S'\x07\xdc\n\x13\x144.\x00\x00\x00'
p1288
tp1289
Rp1290
ag229
(S'\x07\xdc\n\x13\x144.\x00\x00\x00'
p1291
tp1292
Rp1293
ag229
(S"\x07\xdc\n\x14\x12\x0b'\x00\x00\x00"
p1294
tp1295
Rp1296
ag229
(S'\x07\xdc\n\x15\x03\x06!\x00\x00\x00'
p1297
tp1298
Rp1299
ag229
(S'\x07\xdc\n\x15\x03\x06!\x00\x00\x00'
p1300
tp1301
Rp1302
ag229
(S'\x07\xdc\n\x15\x05!\r\x00\x00\x00'
p1303
tp1304
Rp1305
ag229
(S'\x07\xdc\n\x15\x14\x03\r\x00\x00\x00'
p1306
tp1307
Rp1308
ag229
(S'\x07\xdc\n\x15\x14\x03\r\x00\x00\x00'
p1309
tp1310
Rp1311
ag229
(S'\x07\xdc\n\x16\x10\x06#\x00\x00\x00'
p1312
tp1313
Rp1314
ag229
(S'\x07\xdc\n\x16\x10\x06#\x00\x00\x00'
p1315
tp1316
Rp1317
ag229
(S'\x07\xdc\n\x16\x1217\x00\x00\x00'
p1318
tp1319
Rp1320
ag229
(S'\x07\xdc\n\x16\x1217\x00\x00\x00'
p1321
tp1322
Rp1323
ag229
(S'\x07\xdc\n\x17\x03\x1e\x05\x00\x00\x00'
p1324
tp1325
Rp1326
ag229
(S'\x07\xdc\n\x17\x03\x1e\x05\x00\x00\x00'
p1327
tp1328
Rp1329
ag229
(S'\x07\xdc\x0b\x07\x074,\x00\x00\x00'
p1330
tp1331
Rp1332
ag229
(S'\x07\xdc\x0b\x07\x074,\x00\x00\x00'
p1333
tp1334
Rp1335
ag229
(S'\x07\xdc\x0b\x07\r\x03\x18\x00\x00\x00'
p1336
tp1337
Rp1338
ag229
(S'\x07\xdc\x0b\x07\r\x03\x18\x00\x00\x00'
p1339
tp1340
Rp1341
ag229
(S'\x07\xdc\x0b\x0b\x02\x1e7\x00\x00\x00'
p1342
tp1343
Rp1344
ag229
(S'\x07\xdc\x0b\r\x0518\x00\x00\x00'
p1345
tp1346
Rp1347
ag229
(S'\x07\xdc\x0b\x0f\x04#*\x00\x00\x00'
p1348
tp1349
Rp1350
ag229
(S'\x07\xdc\x0b\x0f\x04#*\x00\x00\x00'
p1351
tp1352
Rp1353
ag229
(S'\x07\xdc\x0b\x12\x04\t/\x00\x00\x00'
p1354
tp1355
Rp1356
ag229
(S'\x07\xdc\x0b\x14\x0c)\x08\x00\x00\x00'
p1357
tp1358
Rp1359
ag229
(S'\x07\xdc\x0b\x14\x0c)\x08\x00\x00\x00'
p1360
tp1361
Rp1362
ag229
(S'\x07\xdc\x0b\x15\x066\x1c\x00\x00\x00'
p1363
tp1364
Rp1365
ag229
(S'\x07\xdc\x0b\x15\x066\x1c\x00\x00\x00'
p1366
tp1367
Rp1368
ag229
(S'\x07\xdc\x0b\x15\x0f\x1b\x07\x00\x00\x00'
p1369
tp1370
Rp1371
ag229
(S'\x07\xdc\x0b\x1b\x15\x1a(\x00\x00\x00'
p1372
tp1373
Rp1374
ag229
(S'\x07\xdc\x0b\x1b\x17\x17\x14\x00\x00\x00'
p1375
tp1376
Rp1377
ag229
(S'\x07\xdc\x0b\x1c\x0c\x17\x12\x00\x00\x00'
p1378
tp1379
Rp1380
ag229
(S'\x07\xdc\x0b\x1c\x15$&\x00\x00\x00'
p1381
tp1382
Rp1383
ag229
(S'\x07\xdc\x0b\x1d\x07\t8\x00\x00\x00'
p1384
tp1385
Rp1386
ag229
(S'\x07\xdd\x01\t\x0e(\x07\x00\x00\x00'
p1387
tp1388
Rp1389
ag229
(S"\x07\xdd\x03\x0f\x06'\t\x00\x00\x00"
p1390
tp1391
Rp1392
ag229
(S"\x07\xdd\x03\x0f\x06'\t\x00\x00\x00"
p1393
tp1394
Rp1395
ag229
(S'\x07\xdd\x03\x12\x03\x13*\x00\x00\x00'
p1396
tp1397
Rp1398
ag229
(S'\x07\xdd\x03\x12\x03\x13*\x00\x00\x00'
p1399
tp1400
Rp1401
ag229
(S'\x07\xdd\x03\x14\x01\x00\x12\x00\x00\x00'
p1402
tp1403
Rp1404
ag229
(S'\x07\xdd\x03\x14\x13\r&\x00\x00\x00'
p1405
tp1406
Rp1407
ag229
(S'\x07\xdd\x04\x0b\x07\x0e\x0c\x00\x00\x00'
p1408
tp1409
Rp1410
ag229
(S'\x07\xdd\x04\x0b\x07\x11 \x00\x00\x00'
p1411
tp1412
Rp1413
ag229
(S'\x07\xdd\x04\x0b\n,\x0c\x00\x00\x00'
p1414
tp1415
Rp1416
ag229
(S'\x07\xdd\x04\x0c\x13\x145\x00\x00\x00'
p1417
tp1418
Rp1419
ag229
(S'\x07\xdd\x04\x12\x12\x13\x04\x00\x00\x00'
p1420
tp1421
Rp1422
ag229
(S'\x07\xdd\x04\x16\n\x1e!\x00\x00\x00'
p1423
tp1424
Rp1425
ag229
(S'\x07\xdd\x04\x17\x0e\r7\x00\x00\x00'
p1426
tp1427
Rp1428
ag229
(S'\x07\xdd\x04\x19\x15"3\x00\x00\x00'
p1429
tp1430
Rp1431
ag229
(S'\x07\xdd\x04\x19\x16\x01\x1f\x00\x00\x00'
p1432
tp1433
Rp1434
ag229
(S'\x07\xdd\x04\x1a\x06\x1c\x0e\x00\x00\x00'
p1435
tp1436
Rp1437
ag229
(S'\x07\xdd\x04\x1a\x06:\x0e\x00\x00\x00'
p1438
tp1439
Rp1440
ag229
(S'\x07\xdd\x04\x1b\n3$\x00\x00\x00'
p1441
tp1442
Rp1443
ag229
(S'\x07\xdd\x04\x1b\x0c\x0b$\x00\x00\x00'
p1444
tp1445
Rp1446
ag229
(S'\x07\xdd\x04\x1b\x0f\x0b$\x00\x00\x00'
p1447
tp1448
Rp1449
ag229
(S'\x07\xdd\x04\x1d\t\x0f*\x00\x00\x00'
p1450
tp1451
Rp1452
ag229
(S'\x07\xdd\x04\x1d\x13*\x16\x00\x00\x00'
p1453
tp1454
Rp1455
ag229
(S'\x07\xdd\x04\x1e\x08;-\x00\x00\x00'
p1456
tp1457
Rp1458
ag229
(S'\x07\xdd\x05\x01\x058\x1c\x00\x00\x00'
p1459
tp1460
Rp1461
ag229
(S'\x07\xdd\x05\x01\x06\x10\x1c\x00\x00\x00'
p1462
tp1463
Rp1464
ag229
(S'\x07\xdd\x05\x03\x109\x0e\x00\x00\x00'
p1465
tp1466
Rp1467
ag229
(S'\x07\xdd\x05\x04\x04\x038\x00\x00\x00'
p1468
tp1469
Rp1470
ag229
(S'\x07\xdd\x05\t\x10&\x08\x00\x00\x00'
p1471
tp1472
Rp1473
ag229
(S'\x07\xdd\x05\x10\x16\x0f+\x00\x00\x00'
p1474
tp1475
Rp1476
ag229
(S'\x07\xdd\x05\x12\x14\n\x17\x00\x00\x00'
p1477
tp1478
Rp1479
ag229
(S'\x07\xdd\x05\x12\x15\x00\x17\x00\x00\x00'
p1480
tp1481
Rp1482
ag229
(S'\x07\xdd\x05\x12\x15\x00\x17\x00\x00\x00'
p1483
tp1484
Rp1485
ag229
(S'\x07\xdd\x05\x13\x11\x17*\x00\x00\x00'
p1486
tp1487
Rp1488
ag229
(S'\x07\xdd\x05\x13\x11\x17*\x00\x00\x00'
p1489
tp1490
Rp1491
ag229
(S'\x07\xdd\x05\x13\x11/\x02\x00\x00\x00'
p1492
tp1493
Rp1494
ag229
(S'\x07\xdd\x05\x16\x006\x12\x00\x00\x00'
p1495
tp1496
Rp1497
ag229
(S'\x07\xdd\x05\x17\x0e3$\x00\x00\x00'
p1498
tp1499
Rp1500
ag229
(S'\x07\xdd\x05\x1f\x14\x01\x10\x00\x00\x00'
p1501
tp1502
Rp1503
ag229
(S'\x07\xdd\x06\x03\x07\x15/\x00\x00\x00'
p1504
tp1505
Rp1506
ag229
(S'\x07\xdd\x06\x03\x07\x15/\x00\x00\x00'
p1507
tp1508
Rp1509
ag229
(S'\x07\xdd\x06\x13\t0\x1f\x00\x00\x00'
p1510
tp1511
Rp1512
ag229
(S'\x07\xdd\x06\x13\t0\x1f\x00\x00\x00'
p1513
tp1514
Rp1515
ag229
(S"\x07\xdd\x06\x1c\x03'\x04\x00\x00\x00"
p1516
tp1517
Rp1518
ag229
(S'\x07\xdd\x07\x04\x00\x04\x19\x00\x00\x00'
p1519
tp1520
Rp1521
asS'Messenger_datetimes'
p1522
(lp1523
g229
(S'\x07\xd7\x05\x1e\r.!\x00\x00\x00'
p1524
tp1525
Rp1526
ag229
(S'\x07\xd7\x06\x02\n\x1f\x1a\x00\x00\x00'
p1527
tp1528
Rp1529
ag229
(S'\x07\xd7\x06\x03\x06$\x17\x00\x00\x00'
p1530
tp1531
Rp1532
ag229
(S'\x07\xd7\x07\n\x0c$\x11\x00\x00\x00'
p1533
tp1534
Rp1535
ag229
(S'\x07\xda\x02\x06\x0f\x1d:\x00\x00\x00'
p1536
tp1537
Rp1538
ag229
(S'\x07\xda\x02\x08\r)\x16\x00\x00\x00'
p1539
tp1540
Rp1541
ag229
(S'\x07\xda\x0b\x03\x0c\x0b+\x00\x00\x00'
p1542
tp1543
Rp1544
ag229
(S'\x07\xda\x0b\x06\x0f\x1f5\x00\x00\x00'
p1545
tp1546
Rp1547
ag229
(S'\x07\xdb\x02\x0e\x0f)+\x00\x00\x00'
p1548
tp1549
Rp1550
ag229
(S'\x07\xdb\x02\x0e\x0f)+\x00\x00\x00'
p1551
tp1552
Rp1553
ag229
(S'\x07\xdb\x02\x0e\x0f)+\x00\x00\x00'
p1554
tp1555
Rp1556
ag229
(S'\x07\xdb\x02\x13\x028;\x00\x00\x00'
p1557
tp1558
Rp1559
ag229
(S'\x07\xdb\x02\x13\x0b1\x1d\x00\x00\x00'
p1560
tp1561
Rp1562
ag229
(S'\x07\xdb\x02\x13\x0b1\x1d\x00\x00\x00'
p1563
tp1564
Rp1565
ag229
(S'\x07\xdb\x02\x13\x0b1\x1d\x00\x00\x00'
p1566
tp1567
Rp1568
ag229
(S'\x07\xdb\x02\x18\x07\x1b\x12\x00\x00\x00'
p1569
tp1570
Rp1571
ag229
(S'\x07\xdb\x03\x06\x12\x0c9\x00\x00\x00'
p1572
tp1573
Rp1574
ag229
(S'\x07\xdb\x04\x10\r5\x15\x00\x00\x00'
p1575
tp1576
Rp1577
ag229
(S'\x07\xdb\x04\x16\x04&\x02\x00\x00\x00'
p1578
tp1579
Rp1580
ag229
(S'\x07\xdb\x04\x16\x0b\x13/\x00\x00\x00'
p1581
tp1582
Rp1583
ag229
(S'\x07\xdb\x07\x1c\x0c\x05,\x00\x00\x00'
p1584
tp1585
Rp1586
ag229
(S'\x07\xdb\x08\x08\x12\x01\x03\x00\x00\x00'
p1587
tp1588
Rp1589
ag229
(S'\x07\xdb\x08\t\x0782\x00\x00\x00'
p1590
tp1591
Rp1592
ag229
(S'\x07\xdb\x08\t\x08\n*\x00\x00\x00'
p1593
tp1594
Rp1595
ag229
(S'\x07\xdb\t\n\x07\x16\x07\x00\x00\x00'
p1596
tp1597
Rp1598
ag229
(S'\x07\xdb\t\r\x110\x1e\x00\x00\x00'
p1599
tp1600
Rp1601
ag229
(S'\x07\xdb\t\x10\x0b /\x00\x00\x00'
p1602
tp1603
Rp1604
ag229
(S'\x07\xdb\t\x13\x04\x1e\x19\x00\x00\x00'
p1605
tp1606
Rp1607
ag229
(S'\x07\xdb\t\x14\x0c\x1d\x04\x00\x00\x00'
p1608
tp1609
Rp1610
ag229
(S'\x07\xdb\t\x14\x0c\x1d\x04\x00\x00\x00'
p1611
tp1612
Rp1613
ag229
(S'\x07\xdb\t\x15\x0c\x08\x16\x00\x00\x00'
p1614
tp1615
Rp1616
ag229
(S'\x07\xdb\t\x19\x064*\x00\x00\x00'
p1617
tp1618
Rp1619
ag229
(S'\x07\xdb\t\x19\x08%*\x00\x00\x00'
p1620
tp1621
Rp1622
ag229
(S'\x07\xdb\t\x19\x08%*\x00\x00\x00'
p1623
tp1624
Rp1625
ag229
(S'\x07\xdb\t\x19\t\x1b*\x00\x00\x00'
p1626
tp1627
Rp1628
ag229
(S'\x07\xdb\t\x19\n\x1b*\x00\x00\x00'
p1629
tp1630
Rp1631
ag229
(S'\x07\xdb\t\x19\n\x1b*\x00\x00\x00'
p1632
tp1633
Rp1634
ag229
(S'\x07\xdb\t\x19\x0f\x00\x11\x00\x00\x00'
p1635
tp1636
Rp1637
ag229
(S'\x07\xdb\t\x19\x10\n\x11\x00\x00\x00'
p1638
tp1639
Rp1640
ag229
(S'\x07\xdb\t\x19\x0f\x00\x11\x00\x00\x00'
p1641
tp1642
Rp1643
ag229
(S'\x07\xdb\t\x19\x10\n\x11\x00\x00\x00'
p1644
tp1645
Rp1646
ag229
(S'\x07\xdb\t\x19\x10\n\x11\x00\x00\x00'
p1647
tp1648
Rp1649
ag229
(S'\x07\xdb\t\x19\x16\x0f\x11\x00\x00\x00'
p1650
tp1651
Rp1652
ag229
(S'\x07\xdb\t\x1d\x0c\x073\x00\x00\x00'
p1653
tp1654
Rp1655
ag229
(S'\x07\xdb\t\x1e\x03\n\x04\x00\x00\x00'
p1656
tp1657
Rp1658
ag229
(S'\x07\xdb\t\x1e\x16&\x1b\x00\x00\x00'
p1659
tp1660
Rp1661
ag229
(S'\x07\xdb\n\x11\r\x16\x18\x00\x00\x00'
p1662
tp1663
Rp1664
ag229
(S'\x07\xdb\n\x11\x0e\x11\x18\x00\x00\x00'
p1665
tp1666
Rp1667
ag229
(S'\x07\xdb\x0b\x03\x0b\x02\x05\x00\x00\x00'
p1668
tp1669
Rp1670
ag229
(S'\x07\xdb\x0b\x06\x01\x019\x00\x00\x00'
p1671
tp1672
Rp1673
ag229
(S'\x07\xdb\x0b\x0f\x0c&\t\x00\x00\x00'
p1674
tp1675
Rp1676
ag229
(S'\x07\xdb\x0c\r\x17\x1f\x10\x00\x00\x00'
p1677
tp1678
Rp1679
ag229
(S'\x07\xdb\x0c\x19\x0b\x17;\x00\x00\x00'
p1680
tp1681
Rp1682
ag229
(S'\x07\xdb\x0c\x19\x12\r#\x00\x00\x00'
p1683
tp1684
Rp1685
ag229
(S'\x07\xdb\x0c\x19\x14\x17#\x00\x00\x00'
p1686
tp1687
Rp1688
ag229
(S'\x07\xdb\x0c\x1a\x14\r\x02\x00\x00\x00'
p1689
tp1690
Rp1691
ag229
(S'\x07\xdb\x0c\x1b\x13\x16\r\x00\x00\x00'
p1692
tp1693
Rp1694
ag229
(S'\x07\xdb\x0c\x1e\x14\x14\r\x00\x00\x00'
p1695
tp1696
Rp1697
ag229
(S'\x07\xdb\x0c\x1e\x14\x14\r\x00\x00\x00'
p1698
tp1699
Rp1700
ag229
(S'\x07\xdc\x01\x0b\x04,\x0f\x00\x00\x00'
p1701
tp1702
Rp1703
ag229
(S'\x07\xdc\x01\x10\n\x18\x04\x00\x00\x00'
p1704
tp1705
Rp1706
ag229
(S'\x07\xdc\x03\r\x00#\x1b\x00\x00\x00'
p1707
tp1708
Rp1709
ag229
(S'\x07\xdc\x03\x17\x10$\x1a\x00\x00\x00'
p1710
tp1711
Rp1712
ag229
(S'\x07\xdc\x03\x17\x10$\x1a\x00\x00\x00'
p1713
tp1714
Rp1715
ag229
(S'\x07\xdc\x03\x17\x13$\x1a\x00\x00\x00'
p1716
tp1717
Rp1718
ag229
(S'\x07\xdc\x03\x17\x13$\x1a\x00\x00\x00'
p1719
tp1720
Rp1721
ag229
(S'\x07\xdc\x04\x1b\x08\x14\x17\x00\x00\x00'
p1722
tp1723
Rp1724
ag229
(S'\x07\xdc\x05\x07\x0e\n6\x00\x00\x00'
p1725
tp1726
Rp1727
ag229
(S'\x07\xdc\x05\r\x04\x04\x01\x00\x00\x00'
p1728
tp1729
Rp1730
ag229
(S'\x07\xdc\x05\x19\x16\x17\x06\x00\x00\x00'
p1731
tp1732
Rp1733
ag229
(S'\x07\xdc\x06\x19\x12\x0f\t\x00\x00\x00'
p1734
tp1735
Rp1736
ag229
(S'\x07\xdc\x06\x19\x12\x0f\t\x00\x00\x00'
p1737
tp1738
Rp1739
ag229
(S'\x07\xdc\x06\x1d\x01\x12\x01\x00\x00\x00'
p1740
tp1741
Rp1742
ag229
(S'\x07\xdc\x06\x1d\x04\n\x1f\x00\x00\x00'
p1743
tp1744
Rp1745
ag229
(S'\x07\xdc\x06\x1d\x06,)\x00\x00\x00'
p1746
tp1747
Rp1748
ag229
(S'\x07\xdc\x07\x01\x0f+\x07\x00\x00\x00'
p1749
tp1750
Rp1751
ag229
(S'\x07\xdc\x07\x01\x0f+\x07\x00\x00\x00'
p1752
tp1753
Rp1754
ag229
(S'\x07\xdc\x07\x01\x0f+\x07\x00\x00\x00'
p1755
tp1756
Rp1757
ag229
(S'\x07\xdc\x07\x01\x13\x0b\x07\x00\x00\x00'
p1758
tp1759
Rp1760
ag229
(S'\x07\xdc\x07\x08\x0c5-\x00\x00\x00'
p1761
tp1762
Rp1763
ag229
(S'\x07\xdc\x07\x08\x0c5-\x00\x00\x00'
p1764
tp1765
Rp1766
ag229
(S'\x07\xdc\x07\x08\x11\x1f#\x00\x00\x00'
p1767
tp1768
Rp1769
ag229
(S'\x07\xdc\x07\x08\x11\x1f#\x00\x00\x00'
p1770
tp1771
Rp1772
ag229
(S'\x07\xdc\x07\t\x17\x04\x19\x00\x00\x00'
p1773
tp1774
Rp1775
ag229
(S'\x07\xdc\x07\t\x17\x04\x19\x00\x00\x00'
p1776
tp1777
Rp1778
ag229
(S'\x07\xdc\x07\n\x04 \x18\x00\x00\x00'
p1779
tp1780
Rp1781
ag229
(S'\x07\xdc\x07\n\x04;\x04\x00\x00\x00'
p1782
tp1783
Rp1784
ag229
(S'\x07\xdc\x07\n\x06\x0c\x18\x00\x00\x00'
p1785
tp1786
Rp1787
ag229
(S'\x07\xdc\x07\n\x0c\x13\x04\x00\x00\x00'
p1788
tp1789
Rp1790
ag229
(S"\x07\xdc\x07\n\x0c'\x04\x00\x00\x00"
p1791
tp1792
Rp1793
ag229
(S"\x07\xdc\x07\n\x0c'\x04\x00\x00\x00"
p1794
tp1795
Rp1796
ag229
(S'\x07\xdc\x07\n\r*\x18\x00\x00\x00'
p1797
tp1798
Rp1799
ag229
(S'\x07\xdc\x07\n\r*\x18\x00\x00\x00'
p1800
tp1801
Rp1802
ag229
(S'\x07\xdc\x07\n\x0f*\x18\x00\x00\x00'
p1803
tp1804
Rp1805
ag229
(S'\x07\xdc\x07\n\x0f*\x18\x00\x00\x00'
p1806
tp1807
Rp1808
ag229
(S"\x07\xdc\x07\x10\x13'\x13\x00\x00\x00"
p1809
tp1810
Rp1811
ag229
(S'\x07\xdc\x07\x11\x0f\x12\x00\x00\x00\x00'
p1812
tp1813
Rp1814
ag229
(S'\x07\xdc\x07\x11\x0f\x12\x00\x00\x00\x00'
p1815
tp1816
Rp1817
ag229
(S'\x07\xdc\x07\x11\x0f5\x14\x00\x00\x00'
p1818
tp1819
Rp1820
ag229
(S'\x07\xdc\x07\x11\x10!\x14\x00\x00\x00'
p1821
tp1822
Rp1823
ag229
(S'\x07\xdc\x07\x11\x0f\x12\x00\x00\x00\x00'
p1824
tp1825
Rp1826
ag229
(S'\x07\xdc\x07\x11\x0f5\x14\x00\x00\x00'
p1827
tp1828
Rp1829
ag229
(S'\x07\xdc\x07\x11\x10!\x14\x00\x00\x00'
p1830
tp1831
Rp1832
ag229
(S'\x07\xdc\x07\x13\x05\n\x01\x00\x00\x00'
p1833
tp1834
Rp1835
ag229
(S'\x07\xdc\x07\x18\x13\x00\x08\x00\x00\x00'
p1836
tp1837
Rp1838
ag229
(S'\x07\xdc\x07\x1b\x11\x11!\x00\x00\x00'
p1839
tp1840
Rp1841
ag229
(S'\x07\xdc\x07\x1c\x14/#\x00\x00\x00'
p1842
tp1843
Rp1844
ag229
(S'\x07\xdc\x07\x1d\x06\x12\x0b\x00\x00\x00'
p1845
tp1846
Rp1847
ag229
(S'\x07\xdc\x07\x1e\x06\x08\r\x00\x00\x00'
p1848
tp1849
Rp1850
ag229
(S'\x07\xdc\x07\x1e\x06\x08\r\x00\x00\x00'
p1851
tp1852
Rp1853
ag229
(S'\x07\xdc\x07\x1e\x06\x08\r\x00\x00\x00'
p1854
tp1855
Rp1856
ag229
(S'\x07\xdc\x07\x1f\x0e\x15$\x00\x00\x00'
p1857
tp1858
Rp1859
ag229
(S'\x07\xdc\x08\t\x0b+\x14\x00\x00\x00'
p1860
tp1861
Rp1862
ag229
(S'\x07\xdc\x08\t\x0b+\x14\x00\x00\x00'
p1863
tp1864
Rp1865
ag229
(S'\x07\xdc\x08\n\x04\r\x17\x00\x00\x00'
p1866
tp1867
Rp1868
ag229
(S'\x07\xdc\x08\n\x04\r\x17\x00\x00\x00'
p1869
tp1870
Rp1871
ag229
(S'\x07\xdc\x08\x0b\x0c\x07\x1a\x00\x00\x00'
p1872
tp1873
Rp1874
ag229
(S'\x07\xdc\x08\x13\x04$\x1a\x00\x00\x00'
p1875
tp1876
Rp1877
ag229
(S'\x07\xdc\t\x01\x12\x1b\x06\x00\x00\x00'
p1878
tp1879
Rp1880
ag229
(S'\x07\xdc\t\x01\x12\x1b\x06\x00\x00\x00'
p1881
tp1882
Rp1883
ag229
(S'\x07\xdc\t\x01\x12\x1b\x06\x00\x00\x00'
p1884
tp1885
Rp1886
ag229
(S'\x07\xdc\t\x06\x0f\x126\x00\x00\x00'
p1887
tp1888
Rp1889
ag229
(S'\x07\xdc\t\x07\x00*\x0b\x00\x00\x00'
p1890
tp1891
Rp1892
ag229
(S'\x07\xdc\t\x07\x11 \x0b\x00\x00\x00'
p1893
tp1894
Rp1895
ag229
(S'\x07\xdc\t\x0c\x06\n\x07\x00\x00\x00'
p1896
tp1897
Rp1898
ag229
(S'\x07\xdc\t\x0c\x0b\n\x07\x00\x00\x00'
p1899
tp1900
Rp1901
ag229
(S'\x07\xdc\t\x0c\x0b\n\x07\x00\x00\x00'
p1902
tp1903
Rp1904
ag229
(S'\x07\xdc\t\x0c\x0b\n\x07\x00\x00\x00'
p1905
tp1906
Rp1907
ag229
(S'\x07\xdc\t\x11\x06\x11-\x00\x00\x00'
p1908
tp1909
Rp1910
ag229
(S'\x07\xdc\t\x11\r6\x19\x00\x00\x00'
p1911
tp1912
Rp1913
ag229
(S'\x07\xdc\t\x1e\x0b&7\x00\x00\x00'
p1914
tp1915
Rp1916
ag229
(S'\x07\xdc\t\x1e\x0c\x05#\x00\x00\x00'
p1917
tp1918
Rp1919
ag229
(S'\x07\xdc\n\x01\x14.\x0e\x00\x00\x00'
p1920
tp1921
Rp1922
ag229
(S'\x07\xdc\n\x07\x14\x162\x00\x00\x00'
p1923
tp1924
Rp1925
ag229
(S'\x07\xdc\n\x07\x14\x162\x00\x00\x00'
p1926
tp1927
Rp1928
ag229
(S'\x07\xdc\n\x0f\x04\x14\r\x00\x00\x00'
p1929
tp1930
Rp1931
ag229
(S'\x07\xdc\n\x11\x076\x10\x00\x00\x00'
p1932
tp1933
Rp1934
ag229
(S'\x07\xdc\n\x13\x142:\x00\x00\x00'
p1935
tp1936
Rp1937
ag229
(S'\x07\xdc\n\x13\x142:\x00\x00\x00'
p1938
tp1939
Rp1940
ag229
(S'\x07\xdc\n\x14\x12\x07(\x00\x00\x00'
p1941
tp1942
Rp1943
ag229
(S'\x07\xdc\n\x15\x02:\x05\x00\x00\x00'
p1944
tp1945
Rp1946
ag229
(S'\x07\xdc\n\x15\x02:\x05\x00\x00\x00'
p1947
tp1948
Rp1949
ag229
(S'\x07\xdc\n\x15\x05\x1c\x05\x00\x00\x00'
p1950
tp1951
Rp1952
ag229
(S'\x07\xdc\n\x15\x13:\x05\x00\x00\x00'
p1953
tp1954
Rp1955
ag229
(S'\x07\xdc\n\x15\x13:\x05\x00\x00\x00'
p1956
tp1957
Rp1958
ag229
(S'\x07\xdc\n\x16\x0f:\x07\x00\x00\x00'
p1959
tp1960
Rp1961
ag229
(S'\x07\xdc\n\x16\x0f:\x07\x00\x00\x00'
p1962
tp1963
Rp1964
ag229
(S'\x07\xdc\n\x16\x12,/\x00\x00\x00'
p1965
tp1966
Rp1967
ag229
(S'\x07\xdc\n\x16\x12,/\x00\x00\x00'
p1968
tp1969
Rp1970
ag229
(S'\x07\xdc\n\x17\x03\x18%\x00\x00\x00'
p1971
tp1972
Rp1973
ag229
(S'\x07\xdc\n\x17\x03\x18%\x00\x00\x00'
p1974
tp1975
Rp1976
ag229
(S'\x07\xdc\x0b\x07\x073$\x00\x00\x00'
p1977
tp1978
Rp1979
ag229
(S'\x07\xdc\x0b\x07\x073$\x00\x00\x00'
p1980
tp1981
Rp1982
ag229
(S'\x07\xdc\x0b\x07\r\x01$\x00\x00\x00'
p1983
tp1984
Rp1985
ag229
(S'\x07\xdc\x0b\x07\r\x01$\x00\x00\x00'
p1986
tp1987
Rp1988
ag229
(S'\x07\xdc\x0b\x0b\x02\x16\x1b\x00\x00\x00'
p1989
tp1990
Rp1991
ag229
(S'\x07\xdc\x0b\r\x05,1\x00\x00\x00'
p1992
tp1993
Rp1994
ag229
(S'\x07\xdc\x0b\x0f\x04\x1b\x0f\x00\x00\x00'
p1995
tp1996
Rp1997
ag229
(S'\x07\xdc\x0b\x0f\x04\x1b\x0f\x00\x00\x00'
p1998
tp1999
Rp2000
ag229
(S'\x07\xdc\x0b\x12\x04\x01\x13\x00\x00\x00'
p2001
tp2002
Rp2003
ag229
(S"\x07\xdc\x0b\x14\x0c'\x14\x00\x00\x00"
p2004
tp2005
Rp2006
ag229
(S"\x07\xdc\x0b\x14\x0c'\x14\x00\x00\x00"
p2007
tp2008
Rp2009
ag229
(S'\x07\xdc\x0b\x15\x061\x15\x00\x00\x00'
p2010
tp2011
Rp2012
ag229
(S'\x07\xdc\x0b\x15\x061\x15\x00\x00\x00'
p2013
tp2014
Rp2015
ag229
(S'\x07\xdc\x0b\x15\x0f\x16)\x00\x00\x00'
p2016
tp2017
Rp2018
ag229
(S'\x07\xdc\x0b\x1b\x15\x15 \x00\x00\x00'
p2019
tp2020
Rp2021
ag229
(S'\x07\xdc\x0b\x1b\x17\x12\x0c\x00\x00\x00'
p2022
tp2023
Rp2024
ag229
(S'\x07\xdc\x0b\x1c\x0c\x15\x1f\x00\x00\x00'
p2025
tp2026
Rp2027
ag229
(S'\x07\xdc\x0b\x1c\x15\x1c\x0b\x00\x00\x00'
p2028
tp2029
Rp2030
ag229
(S'\x07\xdc\x0b\x1d\x07\x08\t\x00\x00\x00'
p2031
tp2032
Rp2033
ag229
(S'\x07\xdd\x01\t\x0e#\x00\x00\x00\x00'
p2034
tp2035
Rp2036
ag229
(S'\x07\xdd\x03\x0f\x06\x1b\x15\x00\x00\x00'
p2037
tp2038
Rp2039
ag229
(S'\x07\xdd\x03\x0f\x06\x1b\x15\x00\x00\x00'
p2040
tp2041
Rp2042
ag229
(S'\x07\xdd\x03\x12\x03\x117\x00\x00\x00'
p2043
tp2044
Rp2045
ag229
(S'\x07\xdd\x03\x12\x03\x117\x00\x00\x00'
p2046
tp2047
Rp2048
ag229
(S'\x07\xdd\x03\x14\x00-\x0b\x00\x00\x00'
p2049
tp2050
Rp2051
ag229
(S'\x07\xdd\x03\x14\x13\x0b3\x00\x00\x00'
p2052
tp2053
Rp2054
ag229
(S'\x07\xdd\x04\x0b\x06;\x05\x00\x00\x00'
p2055
tp2056
Rp2057
ag229
(S'\x07\xdd\x04\x0b\x07\x0f-\x00\x00\x00'
p2058
tp2059
Rp2060
ag229
(S'\x07\xdd\x04\x0b\n#-\x00\x00\x00'
p2061
tp2062
Rp2063
ag229
(S'\x07\xdd\x04\x0c\x13\x0f.\x00\x00\x00'
p2064
tp2065
Rp2066
ag229
(S'\x07\xdd\x04\x12\x12\x07\x10\x00\x00\x00'
p2067
tp2068
Rp2069
ag229
(S'\x07\xdd\x04\x16\n\x19\x19\x00\x00\x00'
p2070
tp2071
Rp2072
ag229
(S'\x07\xdd\x04\x17\x0e\x0c\x08\x00\x00\x00'
p2073
tp2074
Rp2075
ag229
(S'\x07\xdd\x04\x19\x15\x1a\x17\x00\x00\x00'
p2076
tp2077
Rp2078
ag229
(S'\x07\xdd\x04\x19\x15;+\x00\x00\x00'
p2079
tp2080
Rp2081
ag229
(S'\x07\xdd\x04\x1a\x06\x17\x06\x00\x00\x00'
p2082
tp2083
Rp2084
ag229
(S'\x07\xdd\x04\x1a\x068\x1a\x00\x00\x00'
p2085
tp2086
Rp2087
ag229
(S'\x07\xdd\x04\x1b\n11\x00\x00\x00'
p2088
tp2089
Rp2090
ag229
(S'\x07\xdd\x04\x1b\x0c\t1\x00\x00\x00'
p2091
tp2092
Rp2093
ag229
(S'\x07\xdd\x04\x1b\x0f\t1\x00\x00\x00'
p2094
tp2095
Rp2096
ag229
(S'\x07\xdd\x04\x1d\t\r7\x00\x00\x00'
p2097
tp2098
Rp2099
ag229
(S'\x07\xdd\x04\x1d\x13(#\x00\x00\x00'
p2100
tp2101
Rp2102
ag229
(S'\x07\xdd\x04\x1e\x086&\x00\x00\x00'
p2103
tp2104
Rp2105
ag229
(S'\x07\xdd\x05\x01\x053\x14\x00\x00\x00'
p2106
tp2107
Rp2108
ag229
(S'\x07\xdd\x05\x01\x06\x0b\x14\x00\x00\x00'
p2109
tp2110
Rp2111
ag229
(S'\x07\xdd\x05\x03\x10..\x00\x00\x00'
p2112
tp2113
Rp2114
ag229
(S'\x07\xdd\x05\x04\x04\x02\t\x00\x00\x00'
p2115
tp2116
Rp2117
ag229
(S'\x07\xdd\x05\t\x10$\x15\x00\x00\x00'
p2118
tp2119
Rp2120
ag229
(S'\x07\xdd\x05\x10\x16\x07\x10\x00\x00\x00'
p2121
tp2122
Rp2123
ag229
(S'\x07\xdd\x05\x12\x14\x05\x0f\x00\x00\x00'
p2124
tp2125
Rp2126
ag229
(S'\x07\xdd\x05\x12\x140#\x00\x00\x00'
p2127
tp2128
Rp2129
ag229
(S'\x07\xdd\x05\x12\x140#\x00\x00\x00'
p2130
tp2131
Rp2132
ag229
(S'\x07\xdd\x05\x13\x11\x0b6\x00\x00\x00'
p2133
tp2134
Rp2135
ag229
(S'\x07\xdd\x05\x13\x11\x0b6\x00\x00\x00'
p2136
tp2137
Rp2138
ag229
(S'\x07\xdd\x05\x13\x11&"\x00\x00\x00'
p2139
tp2140
Rp2141
ag229
(S'\x07\xdd\x05\x16\x005\n\x00\x00\x00'
p2142
tp2143
Rp2144
ag229
(S'\x07\xdd\x05\x17\x0e.\x1c\x00\x00\x00'
p2145
tp2146
Rp2147
ag229
(S'\x07\xdd\x05\x1f\x138\x08\x00\x00\x00'
p2148
tp2149
Rp2150
ag229
(S'\x07\xdd\x06\x03\x07\t;\x00\x00\x00'
p2151
tp2152
Rp2153
ag229
(S'\x07\xdd\x06\x03\x07\t;\x00\x00\x00'
p2154
tp2155
Rp2156
ag229
(S'\x07\xdd\x06\x13\t$+\x00\x00\x00'
p2157
tp2158
Rp2159
ag229
(S'\x07\xdd\x06\x13\t$+\x00\x00\x00'
p2160
tp2161
Rp2162
ag229
(S'\x07\xdd\x06\x1c\x03!8\x00\x00\x00'
p2163
tp2164
Rp2165
ag229
(S'\x07\xdd\x07\x02\x174%\x00\x00\x00'
p2166
tp2167
Rp2168
asS'RHESSI_datetimes'
p2169
(lp2170
g229
(S'\x07\xd7\x05\x1e\r;:\x00\x00\x00'
p2171
tp2172
Rp2173
ag229
(S'\x07\xd7\x06\x02\n!6\x00\x00\x00'
p2174
tp2175
Rp2176
ag229
(S'\x07\xd7\x06\x03\x07\x04\n\x00\x00\x00'
p2177
tp2178
Rp2179
ag229
(S"\x07\xd7\x07\n\x0c'2\x00\x00\x00"
p2180
tp2181
Rp2182
ag229
(S'\x07\xda\x02\x06\x0f#\x12\x00\x00\x00'
p2183
tp2184
Rp2185
ag229
(S'\x07\xda\x02\x08\r7\x0e\x00\x00\x00'
p2186
tp2187
Rp2188
ag229
(S'\x07\xda\x0b\x03\x0c\x11\x0e\x00\x00\x00'
p2189
tp2190
Rp2191
ag229
(S'\x07\xda\x0b\x06\x10\x192\x00\x00\x00'
p2192
tp2193
Rp2194
ag229
(S'\x07\xdb\x02\x0e\x10\x04"\x00\x00\x00'
p2195
tp2196
Rp2197
ag229
(S'\x07\xdb\x02\x0e\x10\x1b&\x00\x00\x00'
p2198
tp2199
Rp2200
ag229
(S'\x07\xdb\x02\x0e\x10\x1e"\x00\x00\x00'
p2201
tp2202
Rp2203
ag229
(S'\x07\xdb\x02\x13\x02\t\x16\x00\x00\x00'
p2204
tp2205
Rp2206
ag229
(S'\x07\xdb\x02\x13\x0b#"\x00\x00\x00'
p2207
tp2208
Rp2209
ag229
(S'\x07\xdb\x02\x13\x0b0\x06\x00\x00\x00'
p2210
tp2211
Rp2212
ag229
(S'\x07\xdb\x02\x13\x0c\x18*\x00\x00\x00'
p2213
tp2214
Rp2215
ag229
(S'\x07\xdb\x02\x18\x07 \x12\x00\x00\x00'
p2216
tp2217
Rp2218
ag229
(S'\x07\xdb\x03\x06\x11:\n\x00\x00\x00'
p2219
tp2220
Rp2221
ag229
(S'\x07\xdb\x04\x10\x0e\x06\x1e\x00\x00\x00'
p2222
tp2223
Rp2224
ag229
(S'\x07\xdb\x04\x16\x04/:\x00\x00\x00'
p2225
tp2226
Rp2227
ag229
(S'\x07\xdb\x04\x16\x0b\x18\x12\x00\x00\x00'
p2228
tp2229
Rp2230
ag229
(S'\x07\xdb\x07\x1c\x0c\t&\x00\x00\x00'
p2231
tp2232
Rp2233
ag229
(S'\x07\xdb\x08\x08\x12\x1b"\x00\x00\x00'
p2234
tp2235
Rp2236
ag229
(S'\x07\xdb\x08\t\x08\x04"\x00\x00\x00'
p2237
tp2238
Rp2239
ag229
(S'\x07\xdb\x08\t\x08\x04"\x00\x00\x00'
p2240
tp2241
Rp2242
ag229
(S'\x07\xdb\t\n\x07\x1a\x1e\x00\x00\x00'
p2243
tp2244
Rp2245
ag229
(S'\x07\xdb\t\r\x116\x06\x00\x00\x00'
p2246
tp2247
Rp2248
ag229
(S'\x07\xdb\t\x10\n%*\x00\x00\x00'
p2249
tp2250
Rp2251
ag229
(S'\x07\xdb\t\x13\x05\x1a\x1a\x00\x00\x00'
p2252
tp2253
Rp2254
ag229
(S'\x07\xdb\t\x14\x0c&\n\x00\x00\x00'
p2255
tp2256
Rp2257
ag229
(S'\x07\xdb\t\x14\r\x01\x12\x00\x00\x00'
p2258
tp2259
Rp2260
ag229
(S'\x07\xdb\t\x15\x0c!*\x00\x00\x00'
p2261
tp2262
Rp2263
ag229
(S'\x07\xdb\t\x19\x07\x1d*\x00\x00\x00'
p2264
tp2265
Rp2266
ag229
(S'\x07\xdb\t\x19\x08\x13:\x00\x00\x00'
p2267
tp2268
Rp2269
ag229
(S'\x07\xdb\t\x19\t\x1f\x1e\x00\x00\x00'
p2270
tp2271
Rp2272
ag229
(S'\x07\xdb\t\x19\t\x1f\x1e\x00\x00\x00'
p2273
tp2274
Rp2275
ag229
(S'\x07\xdb\t\x19\t\x1f\x1e\x00\x00\x00'
p2276
tp2277
Rp2278
ag229
(S'\x07\xdb\t\x19\n)\x06\x00\x00\x00'
p2279
tp2280
Rp2281
ag229
(S'\x07\xdb\t\x19\x0f "\x00\x00\x00'
p2282
tp2283
Rp2284
ag229
(S'\x07\xdb\t\x19\x0f "\x00\x00\x00'
p2285
tp2286
Rp2287
ag229
(S'\x07\xdb\t\x19\x0f(&\x00\x00\x00'
p2288
tp2289
Rp2290
ag229
(S'\x07\xdb\t\x19\x0f(&\x00\x00\x00'
p2291
tp2292
Rp2293
ag229
(S'\x07\xdb\t\x19\x11\x032\x00\x00\x00'
p2294
tp2295
Rp2296
ag229
(S'\x07\xdb\t\x19\x16\x1f\x1e\x00\x00\x00'
p2297
tp2298
Rp2299
ag229
(S'\x07\xdb\t\x1d\x0c.\x1a\x00\x00\x00'
p2300
tp2301
Rp2302
ag229
(S'\x07\xdb\t\x1e\x03:*\x00\x00\x00'
p2303
tp2304
Rp2305
ag229
(S'\x07\xdb\t\x1e\x16\x07\x1e\x00\x00\x00'
p2306
tp2307
Rp2308
ag229
(S'\x07\xdb\n\x11\x0e\x06\x02\x00\x00\x00'
p2309
tp2310
Rp2311
ag229
(S'\x07\xdb\n\x11\x0e\x06\x02\x00\x00\x00'
p2312
tp2313
Rp2314
ag229
(S'\x07\xdb\x0b\x03\x0b\x0e\x1e\x00\x00\x00'
p2315
tp2316
Rp2317
ag229
(S'\x07\xdb\x0b\x06\x001\x1e\x00\x00\x00'
p2318
tp2319
Rp2320
ag229
(S'\x07\xdb\x0b\x0f\x0c*\x02\x00\x00\x00'
p2321
tp2322
Rp2323
ag229
(S'\x07\xdb\x0c\r\x178*\x00\x00\x00'
p2324
tp2325
Rp2326
ag229
(S'\x07\xdb\x0c\x19\x0b\x18&\x00\x00\x00'
p2327
tp2328
Rp2329
ag229
(S'\x07\xdb\x0c\x19\x12\x12\x16\x00\x00\x00'
p2330
tp2331
Rp2332
ag229
(S'\x07\xdb\x0c\x19\x14\x1b6\x00\x00\x00'
p2333
tp2334
Rp2335
ag229
(S'\x07\xdb\x0c\x1a\x14\x12\x02\x00\x00\x00'
p2336
tp2337
Rp2338
ag229
(S'\x07\xdb\x0c\x1b\x12#6\x00\x00\x00'
p2339
tp2340
Rp2341
ag229
(S'\x07\xdb\x0c\x1e\x13.&\x00\x00\x00'
p2342
tp2343
Rp2344
ag229
(S'\x07\xdb\x0c\x1e\x15\x08&\x00\x00\x00'
p2345
tp2346
Rp2347
ag229
(S'\x07\xdc\x01\x0b\x044:\x00\x00\x00'
p2348
tp2349
Rp2350
ag229
(S'\x07\xdc\x01\x10\n$\x16\x00\x00\x00'
p2351
tp2352
Rp2353
ag229
(S'\x07\xdc\x03\r\x00#\x12\x00\x00\x00'
p2354
tp2355
Rp2356
ag229
(S'\x07\xdc\x03\x17\x10&\x0e\x00\x00\x00'
p2357
tp2358
Rp2359
ag229
(S'\x07\xdc\x03\x17\x10,:\x00\x00\x00'
p2360
tp2361
Rp2362
ag229
(S'\x07\xdc\x03\x17\x123&\x00\x00\x00'
p2363
tp2364
Rp2365
ag229
(S'\x07\xdc\x03\x17\x13/\x0e\x00\x00\x00'
p2366
tp2367
Rp2368
ag229
(S'\x07\xdc\x04\x1b\x08\x16\x12\x00\x00\x00'
p2369
tp2370
Rp2371
ag229
(S'\x07\xdc\x05\x07\x0e\x1a\x1e\x00\x00\x00'
p2372
tp2373
Rp2374
ag229
(S'\x07\xdc\x05\r\x04\x05:\x00\x00\x00'
p2375
tp2376
Rp2377
ag229
(S'\x07\xdc\x05\x19\x16\t\x1e\x00\x00\x00'
p2378
tp2379
Rp2380
ag229
(S'\x07\xdc\x06\x19\x12!"\x00\x00\x00'
p2381
tp2382
Rp2383
ag229
(S'\x07\xdc\x06\x19\x13\x02\x1e\x00\x00\x00'
p2384
tp2385
Rp2386
ag229
(S'\x07\xdc\x06\x1d\x01\x18\x0e\x00\x00\x00'
p2387
tp2388
Rp2389
ag229
(S'\x07\xdc\x06\x1d\x04\x0e\x06\x00\x00\x00'
p2390
tp2391
Rp2392
ag229
(S'\x07\xdc\x06\x1d\x07\x02:\x00\x00\x00'
p2393
tp2394
Rp2395
ag229
(S'\x07\xdc\x07\x01\x0f\x13\x12\x00\x00\x00'
p2396
tp2397
Rp2398
ag229
(S'\x07\xdc\x07\x01\x10\x07\x16\x00\x00\x00'
p2399
tp2400
Rp2401
ag229
(S'\x07\xdc\x07\x01\x10)\x1e\x00\x00\x00'
p2402
tp2403
Rp2404
ag229
(S'\x07\xdc\x07\x01\x13\x12"\x00\x00\x00'
p2405
tp2406
Rp2407
ag229
(S'\x07\xdc\x07\x08\x0c\t2\x00\x00\x00'
p2408
tp2409
Rp2410
ag229
(S'\x07\xdc\x07\x08\x0c9\x12\x00\x00\x00'
p2411
tp2412
Rp2413
ag229
(S'\x07\xdc\x07\x08\x11 \x1e\x00\x00\x00'
p2414
tp2415
Rp2416
ag229
(S'\x07\xdc\x07\x08\x12\x1f\x0e\x00\x00\x00'
p2417
tp2418
Rp2419
ag229
(S'\x07\xdc\x07\t\x16\t\x1a\x00\x00\x00'
p2420
tp2421
Rp2422
ag229
(S'\x07\xdc\x07\t\x17"*\x00\x00\x00'
p2423
tp2424
Rp2425
ag229
(S"\x07\xdc\x07\n\x04'\n\x00\x00\x00"
p2426
tp2427
Rp2428
ag229
(S"\x07\xdc\x07\n\x04'\n\x00\x00\x00"
p2429
tp2430
Rp2431
ag229
(S'\x07\xdc\x07\n\x06\x18.\x00\x00\x00'
p2432
tp2433
Rp2434
ag229
(S'\x07\xdc\x07\n\x0c\x18\x02\x00\x00\x00'
p2435
tp2436
Rp2437
ag229
(S'\x07\xdc\x07\n\x0c\x18\x02\x00\x00\x00'
p2438
tp2439
Rp2440
ag229
(S'\x07\xdc\x07\n\r\x1f.\x00\x00\x00'
p2441
tp2442
Rp2443
ag229
(S'\x07\xdc\x07\n\r\x1f.\x00\x00\x00'
p2444
tp2445
Rp2446
ag229
(S'\x07\xdc\x07\n\r+&\x00\x00\x00'
p2447
tp2448
Rp2449
ag229
(S'\x07\xdc\x07\n\x0f\x1e:\x00\x00\x00'
p2450
tp2451
Rp2452
ag229
(S'\x07\xdc\x07\n\x0f,\x1a\x00\x00\x00'
p2453
tp2454
Rp2455
ag229
(S'\x07\xdc\x07\x10\x13,.\x00\x00\x00'
p2456
tp2457
Rp2458
ag229
(S'\x07\xdc\x07\x11\x0e,6\x00\x00\x00'
p2459
tp2460
Rp2461
ag229
(S'\x07\xdc\x07\x11\x0f8*\x00\x00\x00'
p2462
tp2463
Rp2464
ag229
(S'\x07\xdc\x07\x11\x0f8*\x00\x00\x00'
p2465
tp2466
Rp2467
ag229
(S'\x07\xdc\x07\x11\x0f8*\x00\x00\x00'
p2468
tp2469
Rp2470
ag229
(S'\x07\xdc\x07\x11\x10\x0c&\x00\x00\x00'
p2471
tp2472
Rp2473
ag229
(S'\x07\xdc\x07\x11\x10\x0c&\x00\x00\x00'
p2474
tp2475
Rp2476
ag229
(S'\x07\xdc\x07\x11\x10\x0c&\x00\x00\x00'
p2477
tp2478
Rp2479
ag229
(S'\x07\xdc\x07\x13\x05\x1d\x1e\x00\x00\x00'
p2480
tp2481
Rp2482
ag229
(S'\x07\xdc\x07\x18\x12::\x00\x00\x00'
p2483
tp2484
Rp2485
ag229
(S'\x07\xdc\x07\x1b\x103\x12\x00\x00\x00'
p2486
tp2487
Rp2488
ag229
(S'\x07\xdc\x07\x1c\x15\x032\x00\x00\x00'
p2489
tp2490
Rp2491
ag229
(S'\x07\xdc\x07\x1d\x06%*\x00\x00\x00'
p2492
tp2493
Rp2494
ag229
(S'\x07\xdc\x07\x1e\x05\x1e\x02\x00\x00\x00'
p2495
tp2496
Rp2497
ag229
(S'\x07\xdc\x07\x1e\x05..\x00\x00\x00'
p2498
tp2499
Rp2500
ag229
(S'\x07\xdc\x07\x1e\x06\x1e\n\x00\x00\x00'
p2501
tp2502
Rp2503
ag229
(S'\x07\xdc\x07\x1f\r%2\x00\x00\x00'
p2504
tp2505
Rp2506
ag229
(S'\x07\xdc\x08\t\x0b\x02\x1a\x00\x00\x00'
p2507
tp2508
Rp2509
ag229
(S'\x07\xdc\x08\t\x0b,2\x00\x00\x00'
p2510
tp2511
Rp2512
ag229
(S'\x07\xdc\x08\n\x04\r2\x00\x00\x00'
p2513
tp2514
Rp2515
ag229
(S'\x07\xdc\x08\n\x04\x15.\x00\x00\x00'
p2516
tp2517
Rp2518
ag229
(S'\x07\xdc\x08\x0b\x0c\x0f&\x00\x00\x00'
p2519
tp2520
Rp2521
ag229
(S'\x07\xdc\x08\x13\x04"\x02\x00\x00\x00'
p2522
tp2523
Rp2524
ag229
(S'\x07\xdc\t\x01\x11$&\x00\x00\x00'
p2525
tp2526
Rp2527
ag229
(S'\x07\xdc\t\x01\x12:\x0e\x00\x00\x00'
p2528
tp2529
Rp2530
ag229
(S'\x07\xdc\t\x01\x13\x13:\x00\x00\x00'
p2531
tp2532
Rp2533
ag229
(S'\x07\xdc\t\x06\x0f\x14\x02\x00\x00\x00'
p2534
tp2535
Rp2536
ag229
(S'\x07\xdc\t\x06\x17*2\x00\x00\x00'
p2537
tp2538
Rp2539
ag229
(S'\x07\xdc\t\x07\x11\t\x0e\x00\x00\x00'
p2540
tp2541
Rp2542
ag229
(S'\x07\xdc\t\x0c\x05-.\x00\x00\x00'
p2543
tp2544
Rp2545
ag229
(S'\x07\xdc\t\x0c\n\x15&\x00\x00\x00'
p2546
tp2547
Rp2548
ag229
(S'\x07\xdc\t\x0c\x0b\x1a\x1e\x00\x00\x00'
p2549
tp2550
Rp2551
ag229
(S'\x07\xdc\t\x0c\x0b)6\x00\x00\x00'
p2552
tp2553
Rp2554
ag229
(S'\x07\xdc\t\x11\x06\x136\x00\x00\x00'
p2555
tp2556
Rp2557
ag229
(S'\x07\xdc\t\x11\x0c:\n\x00\x00\x00'
p2558
tp2559
Rp2560
ag229
(S'\x07\xdc\t\x1e\x0b\x19*\x00\x00\x00'
p2561
tp2562
Rp2563
ag229
(S'\x07\xdc\t\x1e\x0b\x19*\x00\x00\x00'
p2564
tp2565
Rp2566
ag229
(S'\x07\xdc\n\x01\x14/\x02\x00\x00\x00'
p2567
tp2568
Rp2569
ag229
(S'\x07\xdc\n\x07\x14\x19"\x00\x00\x00'
p2570
tp2571
Rp2572
ag229
(S'\x07\xdc\n\x07\x15\x02\x0e\x00\x00\x00'
p2573
tp2574
Rp2575
ag229
(S'\x07\xdc\n\x0f\x03\x1f\x12\x00\x00\x00'
p2576
tp2577
Rp2578
ag229
(S'\x07\xdc\n\x11\x078&\x00\x00\x00'
p2579
tp2580
Rp2581
ag229
(S'\x07\xdc\n\x13\x14\x0f\x02\x00\x00\x00'
p2582
tp2583
Rp2584
ag229
(S'\x07\xdc\n\x13\x15/\x16\x00\x00\x00'
p2585
tp2586
Rp2587
ag229
(S'\x07\xdc\n\x14\x12\r\x12\x00\x00\x00'
p2588
tp2589
Rp2590
ag229
(S'\x07\xdc\n\x15\x02.\x0e\x00\x00\x00'
p2591
tp2592
Rp2593
ag229
(S'\x07\xdc\n\x15\x03 \x02\x00\x00\x00'
p2594
tp2595
Rp2596
ag229
(S'\x07\xdc\n\x15\x05 \x0e\x00\x00\x00'
p2597
tp2598
Rp2599
ag229
(S'\x07\xdc\n\x15\x14\x01&\x00\x00\x00'
p2600
tp2601
Rp2602
ag229
(S'\x07\xdc\n\x15\x144"\x00\x00\x00'
p2603
tp2604
Rp2605
ag229
(S'\x07\xdc\n\x16\x10\x01\x1a\x00\x00\x00'
p2606
tp2607
Rp2608
ag229
(S'\x07\xdc\n\x16\x10\x106\x00\x00\x00'
p2609
tp2610
Rp2611
ag229
(S'\x07\xdc\n\x16\x11;*\x00\x00\x00'
p2612
tp2613
Rp2614
ag229
(S'\x07\xdc\n\x16\x13\r.\x00\x00\x00'
p2615
tp2616
Rp2617
ag229
(S'\x07\xdc\n\x17\x02\x1f"\x00\x00\x00'
p2618
tp2619
Rp2620
ag229
(S'\x07\xdc\n\x17\x03\x11\x16\x00\x00\x00'
p2621
tp2622
Rp2623
ag229
(S'\x07\xdc\x0b\x07\x072&\x00\x00\x00'
p2624
tp2625
Rp2626
ag229
(S'\x07\xdc\x0b\x07\x08-\x06\x00\x00\x00'
p2627
tp2628
Rp2629
ag229
(S'\x07\xdc\x0b\x07\x0c!\x16\x00\x00\x00'
p2630
tp2631
Rp2632
ag229
(S'\x07\xdc\x0b\x07\r\x0f\n\x00\x00\x00'
p2633
tp2634
Rp2635
ag229
(S'\x07\xdc\x0b\x0b\x02\x1e\x12\x00\x00\x00'
p2636
tp2637
Rp2638
ag229
(S'\x07\xdc\x0b\r\x050\x0e\x00\x00\x00'
p2639
tp2640
Rp2641
ag229
(S'\x07\xdc\x0b\x0f\x04 \x16\x00\x00\x00'
p2642
tp2643
Rp2644
ag229
(S'\x07\xdc\x0b\x0f\x05\n\x16\x00\x00\x00'
p2645
tp2646
Rp2647
ag229
(S'\x07\xdc\x0b\x12\x04\t\n\x00\x00\x00'
p2648
tp2649
Rp2650
ag229
(S'\x07\xdc\x0b\x14\x0b0\x16\x00\x00\x00'
p2651
tp2652
Rp2653
ag229
(S'\x07\xdc\x0b\x14\x0c(2\x00\x00\x00'
p2654
tp2655
Rp2656
ag229
(S'\x07\xdc\x0b\x15\x065\x1e\x00\x00\x00'
p2657
tp2658
Rp2659
ag229
(S'\x07\xdc\x0b\x15\x07"\x12\x00\x00\x00'
p2660
tp2661
Rp2662
ag229
(S'\x07\xdc\x0b\x15\x0f\x1f*\x00\x00\x00'
p2663
tp2664
Rp2665
ag229
(S'\x07\xdc\x0b\x1b\x14\x182\x00\x00\x00'
p2666
tp2667
Rp2668
ag229
(S'\x07\xdc\x0b\x1b\x17\x15\x06\x00\x00\x00'
p2669
tp2670
Rp2671
ag229
(S'\x07\xdc\x0b\x1c\r\x022\x00\x00\x00'
p2672
tp2673
Rp2674
ag229
(S'\x07\xdc\x0b\x1c\x15/2\x00\x00\x00'
p2675
tp2676
Rp2677
ag229
(S'\x07\xdc\x0b\x1d\x07\x076\x00\x00\x00'
p2678
tp2679
Rp2680
ag229
(S'\x07\xdd\x01\t\x0e1\x0e\x00\x00\x00'
p2681
tp2682
Rp2683
ag229
(S'\x07\xdd\x03\x0f\x06\x0b\n\x00\x00\x00'
p2684
tp2685
Rp2686
ag229
(S'\x07\xdd\x03\x0f\x07\t\x16\x00\x00\x00'
p2687
tp2688
Rp2689
ag229
(S'\x07\xdd\x03\x12\x02\x1a.\x00\x00\x00'
p2690
tp2691
Rp2692
ag229
(S'\x07\xdd\x03\x12\x03\x142\x00\x00\x00'
p2693
tp2694
Rp2695
ag229
(S'\x07\xdd\x03\x14\x01\x122\x00\x00\x00'
p2696
tp2697
Rp2698
ag229
(S'\x07\xdd\x03\x14\x120\x1a\x00\x00\x00'
p2699
tp2700
Rp2701
ag229
(S'\x07\xdd\x04\x0b\x07\x07&\x00\x00\x00'
p2702
tp2703
Rp2704
ag229
(S'\x07\xdd\x04\x0b\x07\x07&\x00\x00\x00'
p2705
tp2706
Rp2707
ag229
(S'\x07\xdd\x04\x0b\n9\x12\x00\x00\x00'
p2708
tp2709
Rp2710
ag229
(S'\x07\xdd\x04\x0c\x12+2\x00\x00\x00'
p2711
tp2712
Rp2713
ag229
(S'\x07\xdd\x04\x12\x12\n\x1e\x00\x00\x00'
p2714
tp2715
Rp2716
ag229
(S'\x07\xdd\x04\x16\x0b\n:\x00\x00\x00'
p2717
tp2718
Rp2719
ag229
(S'\x07\xdd\x04\x17\x0e\r2\x00\x00\x00'
p2720
tp2721
Rp2722
ag229
(S'\x07\xdd\x04\x19\x16\x00*\x00\x00\x00'
p2723
tp2724
Rp2725
ag229
(S'\x07\xdd\x04\x19\x16\x00*\x00\x00\x00'
p2726
tp2727
Rp2728
ag229
(S'\x07\xdd\x04\x1a\x06\x192\x00\x00\x00'
p2729
tp2730
Rp2731
ag229
(S'\x07\xdd\x04\x1a\x06\x192\x00\x00\x00'
p2732
tp2733
Rp2734
ag229
(S'\x07\xdd\x04\x1b\n52\x00\x00\x00'
p2735
tp2736
Rp2737
ag229
(S'\x07\xdd\x04\x1b\x0c\x1c6\x00\x00\x00'
p2738
tp2739
Rp2740
ag229
(S'\x07\xdd\x04\x1b\x0f\x0b.\x00\x00\x00'
p2741
tp2742
Rp2743
ag229
(S'\x07\xdd\x04\x1d\x0862\x00\x00\x00'
p2744
tp2745
Rp2746
ag229
(S'\x07\xdd\x04\x1d\x14\x1d\x02\x00\x00\x00'
p2747
tp2748
Rp2749
ag229
(S'\x07\xdd\x04\x1e\x08,2\x00\x00\x00'
p2750
tp2751
Rp2752
ag229
(S'\x07\xdd\x05\x01\x05,.\x00\x00\x00'
p2753
tp2754
Rp2755
ag229
(S'\x07\xdd\x05\x01\x05,.\x00\x00\x00'
p2756
tp2757
Rp2758
ag229
(S'\x07\xdd\x05\x03\x11\x1c6\x00\x00\x00'
p2759
tp2760
Rp2761
ag229
(S'\x07\xdd\x05\x04\x033\x02\x00\x00\x00'
p2762
tp2763
Rp2764
ag229
(S'\x07\xdd\x05\t\x10%\x1e\x00\x00\x00'
p2765
tp2766
Rp2767
ag229
(S'\x07\xdd\x05\x10\x153&\x00\x00\x00'
p2768
tp2769
Rp2770
ag229
(S'\x07\xdd\x05\x12\x141\x1a\x00\x00\x00'
p2771
tp2772
Rp2773
ag229
(S'\x07\xdd\x05\x12\x141\x1a\x00\x00\x00'
p2774
tp2775
Rp2776
ag229
(S'\x07\xdd\x05\x12\x15\x1a*\x00\x00\x00'
p2777
tp2778
Rp2779
ag229
(S'\x07\xdd\x05\x13\x10\x1f\x0e\x00\x00\x00'
p2780
tp2781
Rp2782
ag229
(S'\x07\xdd\x05\x13\x11\x15\x16\x00\x00\x00'
p2783
tp2784
Rp2785
ag229
(S'\x07\xdd\x05\x13\x11\x15\x16\x00\x00\x00'
p2786
tp2787
Rp2788
ag229
(S'\x07\xdd\x05\x16\x01\x02\x16\x00\x00\x00'
p2789
tp2790
Rp2791
ag229
(S'\x07\xdd\x05\x17\x0e1\x1a\x00\x00\x00'
p2792
tp2793
Rp2794
ag229
(S'\x07\xdd\x05\x1f\x13:"\x00\x00\x00'
p2795
tp2796
Rp2797
ag229
(S'\x07\xdd\x06\x03\x07\x0e*\x00\x00\x00'
p2798
tp2799
Rp2800
ag229
(S'\x07\xdd\x06\x03\x074\x06\x00\x00\x00'
p2801
tp2802
Rp2803
ag229
(S'\x07\xdd\x06\x13\t(\x06\x00\x00\x00'
p2804
tp2805
Rp2806
ag229
(S'\x07\xdd\x06\x13\n\x04\x1a\x00\x00\x00'
p2807
tp2808
Rp2809
ag229
(S'\x07\xdd\x06\x1c\x03#\x1e\x00\x00\x00'
p2810
tp2811
Rp2812
ag229
(S'\x07\xdd\x07\x03\x00\x0b\x12\x00\x00\x00'
p2813
tp2814
Rp2815
assS'Flare_properties'
p2816
(dp2817
S'Messenger_EM1'
p2818
(lp2819
F1.823371171951294
aF0.2716652750968933
aF0.9157344698905945
aF0.19795195758342743
aF0.08310409635305405
aF0.4215569496154785
aF0.63309246301651
aF0.9907316565513611
aF0.35799887776374817
aF0.35799887776374817
aF0.35799887776374817
aF0.09830959886312485
aF0.4871332049369812
aF0.4871332049369812
aF0.4871332049369812
aF0.5500609278678894
aF0.0705767497420311
aF0.12219321727752686
aF0.41513192653656006
aF0.1528981477022171
aF0.09632819890975952
aF0.7374985218048096
aF3.3021273612976074
aF2.2210230827331543
aF0.23730133473873138
aF0.07715854793787003
aF0.12566624581813812
aF0.07613462954759598
aF0.2356707900762558
aF0.2356707900762558
aF0.08948918431997299
aF0.14212095737457275
aF0.0790722444653511
aF0.0790722444653511
aF0.1290012001991272
aF0.13384737074375153
aF0.13384737074375153
aF0.08414063602685928
aF0.11733312159776688
aF0.08414063602685928
aF0.11733312159776688
aF0.11733312159776688
aF0.13347652554512024
aF0.09411320835351944
aF0.13022634387016296
aF0.2246505171060562
aF0.1127326637506485
aF0.19086602330207825
aF0.5138117671012878
aF0.24229297041893005
aF0.3903503715991974
aF0.10771296918392181
aF0.18369963765144348
aF0.5050566792488098
aF0.1379377394914627
aF0.4319469630718231
aF0.3677515983581543
aF0.11724751442670822
aF0.11724751442670822
aF0.08064226061105728
aF0.08211403340101242
aF0.08098417520523071
aF0.11419486254453659
aF0.11419486254453659
aF0.11967691034078598
aF0.11967691034078598
aF0.18063272535800934
aF0.3006633520126343
aF0.07288413494825363
aF0.2129248082637787
aF0.17703083157539368
aF0.17703083157539368
aF0.04773096740245819
aF0.05121193826198578
aF0.09896725416183472
aF0.14931853115558624
aF0.14931853115558624
aF0.14931853115558624
aF0.23865120112895966
aF0.12357574701309204
aF0.12357574701309204
aF0.11025452613830566
aF0.11025452613830566
aF0.1596365123987198
aF0.1596365123987198
aF0.1410607099533081
aF0.3475971519947052
aF0.3711877167224884
aF0.09549760818481445
aF0.09791237115859985
aF0.09791237115859985
aF0.1682242751121521
aF0.1682242751121521
aF0.09292082488536835
aF0.09292082488536835
aF0.12973429262638092
aF0.210536390542984
aF0.210536390542984
aF0.22098618745803833
aF0.31934067606925964
aF0.210536390542984
aF0.22098618745803833
aF0.31934067606925964
aF0.19716580212116241
aF0.10391289740800858
aF0.6283023357391357
aF0.8153729438781738
aF0.5450801849365234
aF0.06938488036394119
aF0.06938488036394119
aF0.06938488036394119
aF0.09207161515951157
aF0.18327176570892334
aF0.18327176570892334
aF0.08926078677177429
aF0.08926078677177429
aF0.25038841366767883
aF0.2753062844276428
aF0.045844193547964096
aF0.045844193547964096
aF0.045844193547964096
aF0.0541812963783741
aF0.0
aF0.12195955961942673
aF0.264545202255249
aF0.8598700165748596
aF0.8598700165748596
aF0.8598700165748596
aF0.07907986640930176
aF0.06403113901615143
aF0.23510240018367767
aF0.2893011271953583
aF0.16369539499282837
aF0.9028351902961731
aF0.9028351902961731
aF0.07638668268918991
aF0.16933250427246094
aF0.2459501475095749
aF0.2459501475095749
aF0.7857438921928406
aF0.14924326539039612
aF0.14924326539039612
aF0.13622628152370453
aF0.3100159764289856
aF0.3100159764289856
aF0.10017089545726776
aF0.10017089545726776
aF1.0613797903060913
aF1.0613797903060913
aF0.5922635793685913
aF0.5922635793685913
aF0.06996766477823257
aF0.06996766477823257
aF0.07735952734947205
aF0.07735952734947205
aF0.23346155881881714
aF0.5709460973739624
aF0.14421454071998596
aF0.14421454071998596
aF0.12925401329994202
aF0.3518502414226532
aF0.3518502414226532
aF0.28153151273727417
aF0.28153151273727417
aF0.5015775561332703
aF0.2167898565530777
aF0.14054735004901886
aF0.0942024290561676
aF0.445526123046875
aF0.07198918610811234
aF0.2706838548183441
aF0.1311786025762558
aF0.1311786025762558
aF0.04404609650373459
aF0.04404609650373459
aF0.258799284696579
aF0.11305706202983856
aF1.0953164100646973
aF1.1841542720794678
aF0.14954647421836853
aF0.09905144572257996
aF0.16225847601890564
aF0.147809699177742
aF0.13248729705810547
aF0.17914235591888428
aF0.17692948877811432
aF0.14525118470191956
aF0.11666415631771088
aF0.07048609107732773
aF0.18286918103694916
aF0.08498410880565643
aF0.09412454813718796
aF0.1479135900735855
aF0.11546306312084198
aF0.12271130830049515
aF0.15871725976467133
aF0.14126577973365784
aF0.10165289789438248
aF0.04800063744187355
aF0.11465779691934586
aF0.2210274338722229
aF0.22527289390563965
aF0.22527289390563965
aF0.11846540123224258
aF0.11846540123224258
aF0.2725260853767395
aF0.04658357426524162
aF0.08097653090953827
aF0.23028016090393066
aF0.13358265161514282
aF0.13358265161514282
aF0.1625954657793045
aF0.1625954657793045
aF0.14891450107097626
aF4.041149441036396e-05
asS'RHESSI_total_counts'
p2820
(lp2821
F0.0
aF0.0
aF0.0
aF0.0
aF0.0
aF0.0
aF0.0
aF0.0
aF0.0
aF0.0
aF0.0
aF0.0
aF0.0
aF0.0
aF0.0
aF0.0
aF0.0
aF0.0
aF0.0
aF0.0
aF0.0
aF0.0
aF0.0
aF0.0
aF0.0
aF0.0
aF0.0
aF0.0
aF0.0
aF0.0
aF0.0
aF0.0
aF0.0
aF0.0
aF0.0
aF0.0
aF0.0
aF0.0
aF0.0
aF0.0
aF0.0
aF0.0
aF0.0
aF0.0
aF0.0
aF0.0
aF0.0
aF0.0
aF0.0
aF0.0
aF0.0
aF0.0
aF0.0
aF0.0
aF0.0
aF0.0
aF0.0
aF0.0
aF0.0
aF0.0
aF0.0
aF0.0
aF0.0
aF0.0
aF0.0
aF0.0
aF0.0
aF0.0
aF0.0
aF0.0
aF0.0
aF0.0
aF0.0
aF0.0
aF0.0
aF0.0
aF0.0
aF0.0
aF0.0
aF0.0
aF0.0
aF0.0
aF0.0
aF0.0
aF0.0
aF0.0
aF0.0
aF0.0
aF0.0
aF0.0
aF0.0
aF0.0
aF0.0
aF0.0
aF0.0
aF0.0
aF0.0
aF0.0
aF0.0
aF0.0
aF0.0
aF0.0
aF0.0
aF0.0
aF0.0
aF0.0
aF0.0
aF0.0
aF0.0
aF0.0
aF0.0
aF0.0
aF0.0
aF0.0
aF0.0
aF0.0
aF0.0
aF0.0
aF0.0
aF0.0
aF0.0
aF0.0
aF0.0
aF0.0
aF0.0
aF0.0
aF0.0
aF0.0
aF0.0
aF0.0
aF0.0
aF0.0
aF0.0
aF0.0
aF0.0
aF0.0
aF0.0
aF0.0
aF0.0
aF0.0
aF0.0
aF0.0
aF0.0
aF0.0
aF0.0
aF0.0
aF0.0
aF0.0
aF0.0
aF0.0
aF0.0
aF0.0
aF0.0
aF0.0
aF0.0
aF0.0
aF0.0
aF0.0
aF0.0
aF0.0
aF0.0
aF0.0
aF0.0
aF0.0
aF0.0
aF0.0
aF0.0
aF0.0
aF0.0
aF0.0
aF0.0
aF0.0
aF0.0
aF0.0
aF0.0
aF0.0
aF0.0
aF0.0
aF0.0
aF0.0
aF0.0
aF0.0
aF0.0
aF0.0
aF0.0
aF0.0
aF0.0
aF0.0
aF0.0
aF0.0
aF0.0
aF0.0
aF0.0
aF0.0
aF0.0
aF0.0
aF0.0
aF0.0
aF0.0
aF0.0
aF0.0
aF0.0
aF0.0
aF0.0
aF0.0
aF0.0
aF0.0
aF0.0
aF0.0
aF0.0
aF0.0
aF0.0
aF0.0
aF0.0
aF0.0
asS'Messenger_GOES'
p2822
(lp2823
S'M1.3'
p2824
aS'C1.9'
p2825
aS'C4.9'
p2826
aS'C1.2'
p2827
aS'B3.7'
p2828
aS'C2.1'
p2829
aS'C3.9'
p2830
aS'C5.2'
p2831
aS'C1.6'
p2832
aS'C1.6'
p2833
aS'C1.6'
p2834
aS'B4.9'
p2835
aS'C2.6'
p2836
aS'C2.6'
p2837
aS'C2.6'
p2838
aS'C2.7'
p2839
aS'B3.0'
p2840
aS'B4.5'
p2841
aS'C2.0'
p2842
aS'B5.9'
p2843
aS'B4.1'
p2844
aS'C5.0'
p2845
aS'M4.5'
p2846
aS'M1.5'
p2847
aS'C1.4'
p2848
aS'B2.4'
p2849
aS'B5.7'
p2850
aS'B2.7'
p2851
aS'B9.9'
p2852
aS'B9.9'
p2853
aS'B4.5'
p2854
aS'B6.2'
p2855
aS'B2.5'
p2856
aS'B2.5'
p2857
aS'B6.1'
p2858
aS'B3.3'
p2859
aS'B3.3'
p2860
aS'B3.7'
p2861
aS'B4.8'
p2862
aS'B3.7'
p2863
aS'B4.8'
p2864
aS'B4.8'
p2865
aS'B6.1'
p2866
aS'B3.6'
p2867
aS'B4.2'
p2868
aS'C1.1'
p2869
aS'B6.4'
p2870
aS'C1.0'
p2871
aS'C4.2'
p2872
aS'C1.3'
p2873
aS'C1.8'
p2874
aS'B3.3'
p2875
aS'B5.7'
p2876
aS'C3.4'
p2877
aS'B3.5'
p2878
aS'C2.7'
p2879
aS'C1.5'
p2880
aS'B3.5'
p2881
aS'B3.5'
p2882
aS'B2.8'
p2883
aS'B3.7'
p2884
aS'B2.6'
p2885
aS'B5.6'
p2886
aS'B5.6'
p2887
aS'B7.5'
p2888
aS'B7.5'
p2889
aS'B9.1'
p2890
aS'C1.9'
p2891
aS'B3.2'
p2892
aS'C1.4'
p2893
aS'B7.2'
p2894
aS'B7.2'
p2895
aS'B3.1'
p2896
aS'B2.3'
p2897
aS'B3.6'
p2898
aS'B5.1'
p2899
aS'B5.1'
p2900
aS'B5.1'
p2901
aS'C1.9'
p2902
aS'B5.2'
p2903
aS'B5.2'
p2904
aS'B3.6'
p2905
aS'B3.6'
p2906
aS'B8.9'
p2907
aS'B8.9'
p2908
aS'B6.9'
p2909
aS'C2.4'
p2910
aS'C2.5'
p2911
aS'B4.8'
p2912
aS'B3.4'
p2913
aS'B3.4'
p2914
aS'B8.9'
p2915
aS'B8.9'
p2916
aS'B3.5'
p2917
aS'B3.5'
p2918
aS'B5.4'
p2919
aS'B5.4'
p2920
aS'B5.4'
p2921
aS'B5.8'
p2922
aS'C1.0'
p2923
aS'B5.4'
p2924
aS'B5.8'
p2925
aS'C1.0'
p2926
aS'C1.7'
p2927
aS'B3.9'
p2928
aS'C4.1'
p2929
aS'C7.0'
p2930
aS'C3.0'
p2931
aS'B2.7'
p2932
aS'B2.7'
p2933
aS'B2.7'
p2934
aS'B4.2'
p2935
aS'B5.8'
p2936
aS'B5.8'
p2937
aS'B3.9'
p2938
aS'B3.9'
p2939
aS'B6.4'
p2940
aS'C1.3'
p2941
aS'B1.7'
p2942
aS'B1.7'
p2943
aS'B1.7'
p2944
aS'B2.3'
p2945
aS'nan'
p2946
aS'B4.3'
p2947
aS'C1.4'
p2948
aS'C6.6'
p2949
aS'C6.6'
p2950
aS'C6.6'
p2951
aS'B3.7'
p2952
aS'B2.2'
p2953
aS'C2.0'
p2954
aS'C1.7'
p2955
aS'B9.8'
p2956
aS'C6.5'
p2957
aS'C6.5'
p2958
aS'B4.5'
p2959
aS'B7.1'
p2960
aS'C1.2'
p2961
aS'C1.2'
p2962
aS'C9.0'
p2963
aS'B9.6'
p2964
aS'B9.6'
p2965
aS'B7.5'
p2966
aS'C2.3'
p2967
aS'C2.3'
p2968
aS'B3.6'
p2969
aS'B3.6'
p2970
aS'C9.6'
p2971
aS'C9.6'
p2972
aS'C2.9'
p2973
aS'C2.9'
p2974
aS'B4.0'
p2975
aS'B4.0'
p2976
aS'B3.2'
p2977
aS'B3.2'
p2978
aS'B8.2'
p2979
aS'C4.0'
p2980
aS'B4.9'
p2981
aS'B4.9'
p2982
aS'B3.6'
p2983
aS'C2.0'
p2984
aS'C2.0'
p2985
aS'C1.9'
p2986
aS'C1.9'
p2987
aS'C4.1'
p2988
aS'C1.1'
p2989
aS'B5.4'
p2990
aS'B3.7'
p2991
aS'C2.5'
p2992
aS'B3.0'
p2993
aS'C1.8'
p2994
aS'B5.8'
p2995
aS'B5.8'
p2996
aS'B2.0'
p2997
aS'B2.0'
p2998
aS'C1.5'
p2999
aS'B4.5'
p3000
aS'C7.2'
p3001
aS'C6.1'
p3002
aS'B5.3'
p3003
aS'B3.5'
p3004
aS'B5.7'
p3005
aS'B9.2'
p3006
aS'C1.1'
p3007
aS'B5.9'
p3008
aS'B7.6'
p3009
aS'B7.4'
p3010
aS'B4.0'
p3011
aS'B3.1'
p3012
aS'C1.1'
p3013
aS'B3.3'
p3014
aS'B3.5'
p3015
aS'B5.8'
p3016
aS'B5.9'
p3017
aS'B3.9'
p3018
aS'B3.9'
p3019
aS'B5.3'
p3020
aS'B4.4'
p3021
aS'B1.9'
p3022
aS'B3.0'
p3023
aS'C1.4'
p3024
aS'B8.2'
p3025
aS'B8.2'
p3026
aS'B4.3'
p3027
aS'B4.3'
p3028
aS'B9.4'
p3029
aS'B1.9'
p3030
aS'B3.1'
p3031
aS'B8.0'
p3032
aS'B6.7'
p3033
aS'B6.7'
p3034
aS'B8.7'
p3035
aS'B8.7'
p3036
aS'B6.7'
p3037
aS'      -1'
p3038
asS'GOES_GOES'
p3039
(lp3040
S'A7.4'
p3041
aS'C2.4'
p3042
aS'C3.7'
p3043
aS'B9.8'
p3044
aS'B6.0'
p3045
aS'C3.1'
p3046
aS'C1.2'
p3047
aS'C6.8'
p3048
aS'A3.2'
p3049
aS'A3.2'
p3050
aS'A3.2'
p3051
aS'B4.2'
p3052
aS'A2.6'
p3053
aS'A2.6'
p3054
aS'A2.6'
p3055
aS'C3.8'
p3056
aS'A6.3'
p3057
aS'B6.3'
p3058
aS'C2.9'
p3059
aS'B8.5'
p3060
aS'B7.1'
p3061
aS'C7.8'
p3062
aS'X1.8'
p3063
aS'M2.4'
p3064
aS'C2.0'
p3065
aS'A9.0'
p3066
aS'C1.2'
p3067
aS'A1.1'
p3068
aS'A5.2'
p3069
aS'A5.2'
p3070
aS'C3.2'
p3071
aS'C1.5'
p3072
aS'B5.3'
p3073
aS'B5.3'
p3074
aS'C1.8'
p3075
aS'B4.4'
p3076
aS'B4.4'
p3077
aS'B5.9'
p3078
aS'C1.2'
p3079
aS'B5.9'
p3080
aS'C1.2'
p3081
aS'C1.2'
p3082
aS'C1.0'
p3083
aS'      -1'
p3084
aS'      -1'
p3085
aS'A2.4'
p3086
aS'      -1'
p3087
aS'A9.2'
p3088
aS'C6.4'
p3089
aS'C2.0'
p3090
aS'C2.8'
p3091
aS'B4.7'
p3092
aS'C1.0'
p3093
aS'C9.7'
p3094
aS'B4.6'
p3095
aS'C4.2'
p3096
aS'A4.4'
p3097
aS'B5.1'
p3098
aS'B5.1'
p3099
aS'B4.3'
p3100
aS'A2.8'
p3101
aS'B4.2'
p3102
aS'C1.3'
p3103
aS'C1.3'
p3104
aS'C1.1'
p3105
aS'C1.1'
p3106
aS'C1.6'
p3107
aS'C2.6'
p3108
aS'B7.2'
p3109
aS'      -1'
p3110
aS'A1.5'
p3111
aS'A1.5'
p3112
aS'A3.2'
p3113
aS'C1.1'
p3114
aS'B5.0'
p3115
aS'B7.3'
p3116
aS'B7.3'
p3117
aS'B7.3'
p3118
aS'B3.9'
p3119
aS'B7.4'
p3120
aS'B7.4'
p3121
aS'B8.2'
p3122
aS'B8.2'
p3123
aS'C1.4'
p3124
aS'C1.4'
p3125
aS'C1.0'
p3126
aS'C3.5'
p3127
aS'C3.8'
p3128
aS'B8.4'
p3129
aS'B5.0'
p3130
aS'B5.0'
p3131
aS'C1.5'
p3132
aS'C1.5'
p3133
aS'B4.9'
p3134
aS'B4.9'
p3135
aS'B7.5'
p3136
aS'B7.5'
p3137
aS'B7.5'
p3138
aS'B8.1'
p3139
aS'C1.4'
p3140
aS'B7.5'
p3141
aS'B8.1'
p3142
aS'C1.4'
p3143
aS'C4.6'
p3144
aS'B5.4'
p3145
aS'C5.8'
p3146
aS'C9.5'
p3147
aS'C4.4'
p3148
aS'B4.3'
p3149
aS'B4.3'
p3150
aS'B4.3'
p3151
aS'B7.3'
p3152
aS'B8.5'
p3153
aS'B8.5'
p3154
aS'B5.8'
p3155
aS'B5.8'
p3156
aS'B8.7'
p3157
aS'A5.3'
p3158
aS'B2.8'
p3159
aS'B2.8'
p3160
aS'B2.8'
p3161
aS'B9.2'
p3162
aS'      -1'
p3163
aS'      -1'
p3164
aS'      -1'
p3165
aS'A1.6'
p3166
aS'A1.6'
p3167
aS'A1.6'
p3168
aS'A3.9'
p3169
aS'B3.0'
p3170
aS'A1.1'
p3171
aS'      -1'
p3172
aS'A3.3'
p3173
aS'A6.5'
p3174
aS'A6.5'
p3175
aS'B6.8'
p3176
aS'B9.5'
p3177
aS'B9.2'
p3178
aS'B9.2'
p3179
aS'M1.3'
p3180
aS'C1.4'
p3181
aS'C1.4'
p3182
aS'C1.1'
p3183
aS'C3.4'
p3184
aS'C3.4'
p3185
aS'B5.5'
p3186
aS'B5.5'
p3187
aS'M1.5'
p3188
aS'M1.5'
p3189
aS'C4.3'
p3190
aS'C4.3'
p3191
aS'A1.2'
p3192
aS'A1.2'
p3193
aS'      -1'
p3194
aS'      -1'
p3195
aS'C1.3'
p3196
aS'C6.7'
p3197
aS'B7.6'
p3198
aS'B7.6'
p3199
aS'B6.0'
p3200
aS'C3.9'
p3201
aS'C3.9'
p3202
aS'C3.0'
p3203
aS'C3.0'
p3204
aS'C6.6'
p3205
aS'C1.7'
p3206
aS'B8.9'
p3207
aS'B6.8'
p3208
aS'C4.4'
p3209
aS'B5.4'
p3210
aS'B1.1'
p3211
aS'B9.5'
p3212
aS'B9.5'
p3213
aS'B3.3'
p3214
aS'B3.3'
p3215
aS'C1.1'
p3216
aS'      -1'
p3217
aS'M1.3'
p3218
aS'M1.1'
p3219
aS'B6.9'
p3220
aS'A3.9'
p3221
aS'B7.4'
p3222
aS'C1.4'
p3223
aS'C2.5'
p3224
aS'A1.2'
p3225
aS'C1.0'
p3226
aS'C1.0'
p3227
aS'A6.4'
p3228
aS'A5.4'
p3229
aS'B5.4'
p3230
aS'B2.0'
p3231
aS'A2.4'
p3232
aS'A1.5'
p3233
aS'A3.1'
p3234
aS'      -1'
p3235
aS'      -1'
p3236
aS'C1.3'
p3237
aS'      -1'
p3238
aS'B1.4'
p3239
aS'B1.8'
p3240
aS'      -1'
p3241
aS'B1.8'
p3242
aS'B1.8'
p3243
aS'B5.4'
p3244
aS'B5.4'
p3245
aS'C1.1'
p3246
aS'B2.8'
p3247
aS'B5.6'
p3248
aS'C1.2'
p3249
aS'C1.3'
p3250
aS'C1.3'
p3251
aS'C1.3'
p3252
aS'C1.3'
p3253
aS'B9.4'
p3254
aS''
p3255
asS'Messenger_T'
p3256
(lp3257
F1.6788337230682373
aF1.649368405342102
aF1.4838838577270508
aF1.5442405939102173
aF1.3923654556274414
aF1.4418513774871826
aF1.5834254026412964
aF1.4840220212936401
aF1.3951470851898193
aF1.3951470851898193
aF1.3951470851898193
aF1.450569987297058
aF1.4878884553909302
aF1.4878884553909302
aF1.4878884553909302
aF1.4351381063461304
aF1.359162449836731
aF1.297545313835144
aF1.4196158647537231
aF1.321143388748169
aF1.3657124042510986
aF1.649315595626831
aF2.339437961578369
aF1.648735523223877
aF1.5374280214309692
aF1.2313417196273804
aF1.3983724117279053
aF1.2881914377212524
aF1.3631761074066162
aF1.3631761074066162
aF1.4602558612823486
aF1.3832093477249146
aF1.2406316995620728
aF1.2406316995620728
aF1.4218642711639404
aF1.1369584798812866
aF1.1369584798812866
aF1.3850598335266113
aF1.3509330749511719
aF1.3850598335266113
aF1.3509330749511719
aF1.3509330749511719
aF1.4036966562271118
aF1.3098466396331787
aF1.2375298738479614
aF1.424696445465088
aF1.523322582244873
aF1.4980559349060059
aF1.7911198139190674
aF1.4989827871322632
aF1.4234282970428467
aF1.2226054668426514
aF1.2271233797073364
aF1.6480371952056885
aF1.1493890285491943
aF1.5834711790084839
aF1.3606122732162476
aF1.2131898403167725
aF1.2131898403167725
aF1.2747217416763306
aF1.3915741443634033
aF1.2404863834381104
aF1.439204454421997
aF1.439204454421997
aF1.5903096199035645
aF1.5903096199035645
aF1.4577932357788086
aF1.5790717601776123
aF1.3899917602539062
aF1.6312134265899658
aF1.3450695276260376
aF1.3450695276260376
aF1.6164642572402954
aF1.3936139345169067
aF1.2919317483901978
aF1.2637022733688354
aF1.2637022733688354
aF1.2637022733688354
aF1.7834731340408325
aF1.3576483726501465
aF1.3576483726501465
aF1.2493500709533691
aF1.2493500709533691
aF1.5152255296707153
aF1.5152255296707153
aF1.437759280204773
aF1.66861891746521
aF1.6502221822738647
aF1.455165147781372
aF1.278247594833374
aF1.278247594833374
aF1.483402132987976
aF1.483402132987976
aF1.3086724281311035
aF1.3086724281311035
aF1.352358341217041
aF1.1517143249511719
aF1.1517143249511719
aF1.1643999814987183
aF1.2354519367218018
aF1.1517143249511719
aF1.1643999814987183
aF1.2354519367218018
aF1.829171061515808
aF1.3123050928115845
aF1.6194432973861694
aF1.8359746932983398
aF1.5161001682281494
aF1.332182765007019
aF1.332182765007019
aF1.332182765007019
aF1.4075318574905396
aF1.2334953546524048
aF1.2334953546524048
aF1.3782215118408203
aF1.3782215118408203
aF1.1506617069244385
aF1.4123111963272095
aF1.303905725479126
aF1.303905725479126
aF1.303905725479126
aF1.36699378490448
aF0.27
aF1.2746186256408691
aF1.4953479766845703
aF1.7320939302444458
aF1.7320939302444458
aF1.7320939302444458
aF1.4121644496917725
aF1.2659599781036377
aF1.8061370849609375
aF1.5322153568267822
aF1.5575333833694458
aF1.6878066062927246
aF1.6878066062927246
aF1.5534217357635498
aF1.3616747856140137
aF1.4489105939865112
aF1.4489105939865112
aF2.124180316925049
aF1.60569429397583
aF1.60569429397583
aF1.5080721378326416
aF1.6983355283737183
aF1.6983355283737183
aF1.2919533252716064
aF1.2919533252716064
aF1.8783113956451416
aF1.8783113956451416
aF1.4321798086166382
aF1.4321798086166382
aF1.5258815288543701
aF1.5258815288543701
aF1.3594709634780884
aF1.3594709634780884
aF1.2794878482818604
aF1.6728318929672241
aF1.2585949897766113
aF1.2585949897766113
aF1.1826354265213013
aF1.5279146432876587
aF1.5279146432876587
aF1.654703140258789
aF1.654703140258789
aF1.7897164821624756
aF1.4478925466537476
aF1.3143339157104492
aF1.332794189453125
aF1.5285173654556274
aF1.3580888509750366
aF1.6399520635604858
aF1.3898218870162964
aF1.3898218870162964
aF1.38840651512146
aF1.38840651512146
aF1.5477266311645508
aF1.3370774984359741
aF1.6206525564193726
aF1.4656075239181519
aF1.278436303138733
aF1.2757242918014526
aF1.2740342617034912
aF1.5865211486816406
aF1.80100417137146
aF1.2479075193405151
aF1.3734887838363647
aF1.465501070022583
aF1.2615817785263062
aF1.3904310464859009
aF1.5758050680160522
aF1.3162158727645874
aF1.306836724281311
aF1.3289446830749512
aF1.4631344079971313
aF1.2358393669128418
aF1.1413390636444092
aF1.3036103248596191
aF1.3785001039505005
aF1.336104393005371
aF1.1600126028060913
aF1.607300043106079
aF1.2932853698730469
aF1.2932853698730469
aF1.2921913862228394
aF1.2921913862228394
aF1.2688008546829224
aF1.3424512147903442
aF1.3168082237243652
aF1.271727442741394
aF1.4515283107757568
aF1.4515283107757568
aF1.49089515209198
aF1.49089515209198
aF1.3931697607040405
aF2.9644124507904053
asS'RHESSI_GOES'
p3258
(lp3259
S'C2.0*'
p3260
aS'M1.0'
p3261
ag3255
aS'C1.1*'
p3262
aS'B1.3'
p3263
aS'B1.3'
p3264
aS'B4.7*'
p3265
aS'C8.2'
p3266
aS'B2.2'
p3267
aS'B7.8'
p3268
ag3255
ag3255
aS'B2.7'
p3269
aS'C1.0'
p3270
aS'C1.1*'
p3271
ag3255
ag3255
aS'C2.1'
p3272
aS'C1.1'
p3273
aS'B8.4'
p3274
ag3255
aS'B1.2'
p3275
aS'B2.7'
p3276
aS'B7.2'
p3277
aS'B5.2*'
p3278
ag3255
aS'C1.1'
p3279
aS'C2.2*'
p3280
ag3255
aS'C2.2'
p3281
aS'C3.4'
p3282
ag3255
aS'B1.5'
p3283
ag3255
ag3255
aS'C8.8'
p3284
aS'B6.5'
p3285
aS'B7.7'
p3286
aS'C2.4'
p3287
aS'B8.5'
p3288
ag3255
ag3255
aS'C3.2*'
p3289
aS'C1.5*'
p3290
aS'C1.5*'
p3291
aS'B5.3'
p3292
aS'B3.5*'
p3293
aS'C3.3'
p3294
aS'C1.7'
p3295
aS'B3.2'
p3296
aS'B7.2'
p3297
aS'C2.5*'
p3298
aS'C1.2'
p3299
aS'C1.1*'
p3300
aS'C4.9'
p3301
ag3255
ag3255
ag3255
aS'C1.5'
p3302
aS'B9.5'
p3303
aS'B1.1'
p3304
ag3255
aS'B3.3'
p3305
aS'B5.1'
p3306
aS'C1.6'
p3307
aS'B4.1'
p3308
aS'B2.2'
p3309
aS'C1.0'
p3310
aS'C2.2'
p3311
aS'C1.1*'
p3312
aS'C1.3*'
p3313
ag3255
aS'C1.4'
p3314
aS'C1.2'
p3315
aS'C1.5'
p3316
aS'B4.5*'
p3317
aS'B6.9'
p3318
aS'C2.6'
p3319
aS'B6.7'
p3320
ag3255
ag3255
ag3255
aS'C4.7'
p3321
ag3255
ag3255
ag3255
ag3255
aS'C1.7'
p3322
aS'C9.4'
p3323
aS'C7.0'
p3324
ag3255
ag3255
ag3255
aS'B7.9'
p3325
aS'M2.2'
p3326
ag3255
aS'C2.7'
p3327
aS'X2.2'
p3328
ag3255
aS'C6.6*'
p3329
aS'C6.6*'
p3330
aS'M1.1'
p3331
ag3255
ag3255
aS'M1.6'
p3332
ag3255
ag3255
ag3255
ag3255
ag3255
ag3255
ag3255
ag3255
ag3255
ag3255
aS'M6.6*'
p3333
aS'M6.6*'
p3334
ag3255
ag3255
aS'M1.0'
p3335
aS'C5.0'
p3336
aS'C5.5'
p3337
ag3255
ag3255
ag3255
aS'C2.6'
p3338
ag3255
ag3255
ag3255
aS'C1.1'
p3339
ag3255
ag3255
ag3255
aS'C1.0'
p3340
ag3255
aS'C2.7'
p3341
aS'C1.5'
p3342
ag3255
aS'M3.5'
p3343
aS'B8.3*'
p3344
ag3255
aS'C2.9*'
p3345
ag3255
ag3255
ag3255
aS'C2.2*'
p3346
aS'C2.2*'
p3347
ag3255
ag3255
aS'C5.0'
p3348
aS'M1.2'
p3349
ag3255
ag3255
aS'M3.7*'
p3350
aS'M3.7*'
p3351
aS'M1.5*'
p3352
aS'M1.5*'
p3353
ag3255
aS'M1.3'
p3354
aS'M1.5'
p3355
ag3255
ag3255
ag3255
aS'M4.4'
p3356
ag3255
aS'M1.4*'
p3357
aS'M1.4*'
p3358
ag3255
aS'C9.4*'
p3359
ag3255
ag3255
ag3255
ag3255
aS'X1.5'
p3360
ag3255
ag3255
aS'M1.1'
p3361
aS'C1.4'
p3362
ag3255
ag3255
aS'C5.5'
p3363
ag3255
aS'C2.0'
p3364
ag3255
aS'C1.1'
p3365
ag3255
aS'C1.2'
p3366
aS'B9.0'
p3367
ag3255
aS'C2.2'
p3368
ag3255
aS'C6.4'
p3369
aS'B8.5'
p3370
aS'C2.2'
p3371
aS'M4.2*'
p3372
ag3255
aS'B7.4*'
p3373
aS'C5.2'
p3374
aS'C3.7*'
p3375
aS'C3.7*'
p3376
aS'C3.7*'
p3377
aS'C3.7*'
p3378
aS'C3.7*'
p3379
ag3255
ag3255
ag3255
aS'C4.2*'
p3380
ag3255
ag3255
ag3255
aS'C1.6*'
p3381
aS'C1.6*'
p3382
aS'C1.3*'
p3383
aS'C1.0'
p3384
ag3255
asS'source_vis'
p3385
(lp3386
S'nan'
p3387
aS'nan'
p3388
aS'nan'
p3389
aS'nan'
p3390
aS'nan'
p3391
aS'nan'
p3392
aS'nan'
p3393
aS'nan'
p3394
aS'nan'
p3395
aS'nan'
p3396
aS'nan'
p3397
aS'nan'
p3398
aS'nan'
p3399
aS'nan'
p3400
aS'nan'
p3401
aS'nan'
p3402
aS'nan'
p3403
aS'nan'
p3404
aS'nan'
p3405
aS'nan'
p3406
aS'nan'
p3407
aS'nan'
p3408
aS'nan'
p3409
aS'nan'
p3410
aS'nan'
p3411
aS'nan'
p3412
aS'nan'
p3413
aS'nan'
p3414
aS'nan'
p3415
aS'nan'
p3416
aS'nan'
p3417
aS'nan'
p3418
aS'nan'
p3419
aS'nan'
p3420
aS'nan'
p3421
aS'nan'
p3422
aS'nan'
p3423
aS'nan'
p3424
aS'nan'
p3425
aS'nan'
p3426
aS'nan'
p3427
aS'nan'
p3428
aS'nan'
p3429
aS'nan'
p3430
aS'nan'
p3431
aS'nan'
p3432
aS'nan'
p3433
aS'nan'
p3434
aS'nan'
p3435
aS'nan'
p3436
aS'nan'
p3437
aS'nan'
p3438
aS'nan'
p3439
aS'nan'
p3440
aS'nan'
p3441
aS'nan'
p3442
aS'nan'
p3443
aS'nan'
p3444
aS'nan'
p3445
aS'nan'
p3446
aS'nan'
p3447
aS'nan'
p3448
aS'nan'
p3449
aS'nan'
p3450
aS'nan'
p3451
aS'nan'
p3452
aS'nan'
p3453
aS'nan'
p3454
aS'nan'
p3455
aS'nan'
p3456
aS'nan'
p3457
aS'nan'
p3458
aS'nan'
p3459
aS'nan'
p3460
aS'nan'
p3461
aS'nan'
p3462
aS'nan'
p3463
aS'nan'
p3464
aS'nan'
p3465
aS'nan'
p3466
aS'nan'
p3467
aS'nan'
p3468
aS'nan'
p3469
aS'nan'
p3470
aS'nan'
p3471
aS'nan'
p3472
aS'nan'
p3473
aS'nan'
p3474
aS'nan'
p3475
aS'nan'
p3476
aS'nan'
p3477
aS'nan'
p3478
aS'nan'
p3479
aS'nan'
p3480
aS'nan'
p3481
aS'nan'
p3482
aS'nan'
p3483
aS'nan'
p3484
aS'nan'
p3485
aS'nan'
p3486
aS'nan'
p3487
aS'nan'
p3488
aS'nan'
p3489
aS'nan'
p3490
aS'nan'
p3491
aS'nan'
p3492
aS'nan'
p3493
aS'nan'
p3494
aS'nan'
p3495
aS'nan'
p3496
aS'nan'
p3497
aS'nan'
p3498
aS'nan'
p3499
aS'nan'
p3500
aS'nan'
p3501
aS'nan'
p3502
aS'nan'
p3503
aS'nan'
p3504
aS'nan'
p3505
aS'nan'
p3506
aS'nan'
p3507
aS'nan'
p3508
aS'nan'
p3509
aS'nan'
p3510
aS'nan'
p3511
aS'nan'
p3512
aS'nan'
p3513
aS'nan'
p3514
aS'nan'
p3515
aS'nan'
p3516
aS'nan'
p3517
aS'nan'
p3518
aS'nan'
p3519
aS'nan'
p3520
aS'nan'
p3521
aS'nan'
p3522
aS'nan'
p3523
aS'nan'
p3524
aS'nan'
p3525
aS'nan'
p3526
aS'nan'
p3527
aS'nan'
p3528
aS'nan'
p3529
aS'nan'
p3530
aS'nan'
p3531
aS'nan'
p3532
aS'nan'
p3533
aS'nan'
p3534
aS'nan'
p3535
aS'nan'
p3536
aS'nan'
p3537
aS'nan'
p3538
aS'nan'
p3539
aS'nan'
p3540
aS'nan'
p3541
aS'nan'
p3542
aS'nan'
p3543
aS'nan'
p3544
aS'nan'
p3545
aS'nan'
p3546
aS'nan'
p3547
aS'nan'
p3548
aS'nan'
p3549
aS'nan'
p3550
aS'nan'
p3551
aS'nan'
p3552
aS'nan'
p3553
aS'nan'
p3554
aS'nan'
p3555
aS'nan'
p3556
aS'nan'
p3557
aS'nan'
p3558
aS'nan'
p3559
aS'nan'
p3560
aS'nan'
p3561
aS'nan'
p3562
aS'nan'
p3563
aS'nan'
p3564
aS'nan'
p3565
aS'nan'
p3566
aS'nan'
p3567
aS'nan'
p3568
aS'nan'
p3569
aS'nan'
p3570
aS'nan'
p3571
aS'nan'
p3572
aS'nan'
p3573
aS'nan'
p3574
aS'nan'
p3575
aS'nan'
p3576
aS'nan'
p3577
aS'nan'
p3578
aS'nan'
p3579
aS'nan'
p3580
aS'nan'
p3581
aS'nan'
p3582
aS'nan'
p3583
aS'nan'
p3584
aS'nan'
p3585
aS'nan'
p3586
aS'nan'
p3587
aS'nan'
p3588
aS'nan'
p3589
aS'nan'
p3590
aS'nan'
p3591
aS'nan'
p3592
aS'nan'
p3593
aS'nan'
p3594
aS'nan'
p3595
aS'nan'
p3596
aS'nan'
p3597
aS'nan'
p3598
aS'nan'
p3599
aS'nan'
p3600
aS'nan'
p3601
asS'Messenger_total_counts'
p3602
(lp3603
F0.0
aF0.0
aF0.0
aF0.0
aF0.0
aF0.0
aF0.0
aF0.0
aF0.0
aF0.0
aF0.0
aF0.0
aF0.0
aF0.0
aF0.0
aF0.0
aF0.0
aF0.0
aF0.0
aF0.0
aF0.0
aF0.0
aF0.0
aF0.0
aF0.0
aF0.0
aF0.0
aF0.0
aF0.0
aF0.0
aF0.0
aF0.0
aF0.0
aF0.0
aF0.0
aF0.0
aF0.0
aF0.0
aF0.0
aF0.0
aF0.0
aF0.0
aF0.0
aF0.0
aF0.0
aF0.0
aF0.0
aF0.0
aF0.0
aF0.0
aF0.0
aF0.0
aF0.0
aF0.0
aF0.0
aF0.0
aF0.0
aF0.0
aF0.0
aF0.0
aF0.0
aF0.0
aF0.0
aF0.0
aF0.0
aF0.0
aF0.0
aF0.0
aF0.0
aF0.0
aF0.0
aF0.0
aF0.0
aF0.0
aF0.0
aF0.0
aF0.0
aF0.0
aF0.0
aF0.0
aF0.0
aF0.0
aF0.0
aF0.0
aF0.0
aF0.0
aF0.0
aF0.0
aF0.0
aF0.0
aF0.0
aF0.0
aF0.0
aF0.0
aF0.0
aF0.0
aF0.0
aF0.0
aF0.0
aF0.0
aF0.0
aF0.0
aF0.0
aF0.0
aF0.0
aF0.0
aF0.0
aF0.0
aF0.0
aF0.0
aF0.0
aF0.0
aF0.0
aF0.0
aF0.0
aF0.0
aF0.0
aF0.0
aF0.0
aF0.0
aF0.0
aF0.0
aF0.0
aF0.0
aF0.0
aF0.0
aF0.0
aF0.0
aF0.0
aF0.0
aF0.0
aF0.0
aF0.0
aF0.0
aF0.0
aF0.0
aF0.0
aF0.0
aF0.0
aF0.0
aF0.0
aF0.0
aF0.0
aF0.0
aF0.0
aF0.0
aF0.0
aF0.0
aF0.0
aF0.0
aF0.0
aF0.0
aF0.0
aF0.0
aF0.0
aF0.0
aF0.0
aF0.0
aF0.0
aF0.0
aF0.0
aF0.0
aF0.0
aF0.0
aF0.0
aF0.0
aF0.0
aF0.0
aF0.0
aF0.0
aF0.0
aF0.0
aF0.0
aF0.0
aF0.0
aF0.0
aF0.0
aF0.0
aF0.0
aF0.0
aF0.0
aF0.0
aF0.0
aF0.0
aF0.0
aF0.0
aF0.0
aF0.0
aF0.0
aF0.0
aF0.0
aF0.0
aF0.0
aF0.0
aF0.0
aF0.0
aF0.0
aF0.0
aF0.0
aF0.0
aF0.0
aF0.0
aF0.0
aF0.0
aF0.0
aF0.0
aF0.0
aF0.0
aF0.0
aF0.0
aF0.0
aF0.0
aF0.0
aF0.0
aF0.0
assS'Data_properties'
p3604
(dp3605
S'QL_images'
p3606
(lp3607
S'nan'
p3608
aS'nan'
p3609
aS'nan'
p3610
aS'nan'
p3611
aS'nan'
p3612
aS'nan'
p3613
aS'nan'
p3614
aS'nan'
p3615
aS'nan'
p3616
aS'nan'
p3617
aS'nan'
p3618
aS'nan'
p3619
aS'nan'
p3620
aS'nan'
p3621
aS'nan'
p3622
aS'nan'
p3623
aS'nan'
p3624
aS'nan'
p3625
aS'nan'
p3626
aS'nan'
p3627
aS'nan'
p3628
aS'nan'
p3629
aS'nan'
p3630
aS'nan'
p3631
aS'nan'
p3632
aS'nan'
p3633
aS'nan'
p3634
aS'nan'
p3635
aS'nan'
p3636
aS'nan'
p3637
aS'nan'
p3638
aS'nan'
p3639
aS'nan'
p3640
aS'nan'
p3641
aS'nan'
p3642
aS'nan'
p3643
aS'nan'
p3644
aS'nan'
p3645
aS'nan'
p3646
aS'nan'
p3647
aS'nan'
p3648
aS'nan'
p3649
aS'nan'
p3650
aS'nan'
p3651
aS'nan'
p3652
aS'nan'
p3653
aS'nan'
p3654
aS'nan'
p3655
aS'nan'
p3656
aS'nan'
p3657
aS'nan'
p3658
aS'nan'
p3659
aS'nan'
p3660
aS'nan'
p3661
aS'nan'
p3662
aS'nan'
p3663
aS'nan'
p3664
aS'nan'
p3665
aS'nan'
p3666
aS'nan'
p3667
aS'nan'
p3668
aS'nan'
p3669
aS'nan'
p3670
aS'nan'
p3671
aS'nan'
p3672
aS'nan'
p3673
aS'nan'
p3674
aS'nan'
p3675
aS'nan'
p3676
aS'nan'
p3677
aS'nan'
p3678
aS'nan'
p3679
aS'nan'
p3680
aS'nan'
p3681
aS'nan'
p3682
aS'nan'
p3683
aS'nan'
p3684
aS'nan'
p3685
aS'nan'
p3686
aS'nan'
p3687
aS'nan'
p3688
aS'nan'
p3689
aS'nan'
p3690
aS'nan'
p3691
aS'nan'
p3692
aS'nan'
p3693
aS'nan'
p3694
aS'nan'
p3695
aS'nan'
p3696
aS'nan'
p3697
aS'nan'
p3698
aS'nan'
p3699
aS'nan'
p3700
aS'nan'
p3701
aS'nan'
p3702
aS'nan'
p3703
aS'nan'
p3704
aS'nan'
p3705
aS'nan'
p3706
aS'nan'
p3707
aS'nan'
p3708
aS'nan'
p3709
aS'nan'
p3710
aS'nan'
p3711
aS'nan'
p3712
aS'nan'
p3713
aS'nan'
p3714
aS'nan'
p3715
aS'nan'
p3716
aS'nan'
p3717
aS'nan'
p3718
aS'nan'
p3719
aS'nan'
p3720
aS'nan'
p3721
aS'nan'
p3722
aS'nan'
p3723
aS'nan'
p3724
aS'nan'
p3725
aS'nan'
p3726
aS'nan'
p3727
aS'nan'
p3728
aS'nan'
p3729
aS'nan'
p3730
aS'nan'
p3731
aS'nan'
p3732
aS'nan'
p3733
aS'nan'
p3734
aS'nan'
p3735
aS'nan'
p3736
aS'nan'
p3737
aS'nan'
p3738
aS'nan'
p3739
aS'nan'
p3740
aS'nan'
p3741
aS'nan'
p3742
aS'nan'
p3743
aS'nan'
p3744
aS'nan'
p3745
aS'nan'
p3746
aS'nan'
p3747
aS'nan'
p3748
aS'nan'
p3749
aS'nan'
p3750
aS'nan'
p3751
aS'nan'
p3752
aS'nan'
p3753
aS'nan'
p3754
aS'nan'
p3755
aS'nan'
p3756
aS'nan'
p3757
aS'nan'
p3758
aS'nan'
p3759
aS'nan'
p3760
aS'nan'
p3761
aS'nan'
p3762
aS'nan'
p3763
aS'nan'
p3764
aS'nan'
p3765
aS'nan'
p3766
aS'nan'
p3767
aS'nan'
p3768
aS'nan'
p3769
aS'nan'
p3770
aS'nan'
p3771
aS'nan'
p3772
aS'nan'
p3773
aS'nan'
p3774
aS'nan'
p3775
aS'nan'
p3776
aS'nan'
p3777
aS'nan'
p3778
aS'nan'
p3779
aS'nan'
p3780
aS'nan'
p3781
aS'nan'
p3782
aS'nan'
p3783
aS'nan'
p3784
aS'nan'
p3785
aS'nan'
p3786
aS'nan'
p3787
aS'nan'
p3788
aS'nan'
p3789
aS'nan'
p3790
aS'nan'
p3791
aS'nan'
p3792
aS'nan'
p3793
aS'nan'
p3794
aS'nan'
p3795
aS'nan'
p3796
aS'nan'
p3797
aS'nan'
p3798
aS'nan'
p3799
aS'nan'
p3800
aS'nan'
p3801
aS'nan'
p3802
aS'nan'
p3803
aS'nan'
p3804
aS'nan'
p3805
aS'nan'
p3806
aS'nan'
p3807
aS'nan'
p3808
aS'nan'
p3809
aS'nan'
p3810
aS'nan'
p3811
aS'nan'
p3812
aS'nan'
p3813
aS'nan'
p3814
aS'nan'
p3815
aS'nan'
p3816
aS'nan'
p3817
aS'nan'
p3818
aS'nan'
p3819
aS'nan'
p3820
aS'nan'
p3821
aS'nan'
p3822
asS'Messenger_data_path'
p3823
(lp3824
S'/Users/wheatley/Documents/Solar/occulted_flares/data/dat_files'
p3825
aS'/Users/wheatley/Documents/Solar/occulted_flares/data/dat_files'
p3826
aS'/Users/wheatley/Documents/Solar/occulted_flares/data/dat_files'
p3827
aS'/Users/wheatley/Documents/Solar/occulted_flares/data/dat_files'
p3828
aS'/Users/wheatley/Documents/Solar/occulted_flares/data/dat_files'
p3829
aS'/Users/wheatley/Documents/Solar/occulted_flares/data/dat_files'
p3830
aS'/Users/wheatley/Documents/Solar/occulted_flares/data/dat_files'
p3831
aS'/Users/wheatley/Documents/Solar/occulted_flares/data/dat_files'
p3832
aS'/Users/wheatley/Documents/Solar/occulted_flares/data/dat_files'
p3833
aS'/Users/wheatley/Documents/Solar/occulted_flares/data/dat_files'
p3834
aS'/Users/wheatley/Documents/Solar/occulted_flares/data/dat_files'
p3835
aS'/Users/wheatley/Documents/Solar/occulted_flares/data/dat_files'
p3836
aS'/Users/wheatley/Documents/Solar/occulted_flares/data/dat_files'
p3837
aS'/Users/wheatley/Documents/Solar/occulted_flares/data/dat_files'
p3838
aS'/Users/wheatley/Documents/Solar/occulted_flares/data/dat_files'
p3839
aS'/Users/wheatley/Documents/Solar/occulted_flares/data/dat_files'
p3840
aS'/Users/wheatley/Documents/Solar/occulted_flares/data/dat_files'
p3841
aS'/Users/wheatley/Documents/Solar/occulted_flares/data/dat_files'
p3842
aS'/Users/wheatley/Documents/Solar/occulted_flares/data/dat_files'
p3843
aS'/Users/wheatley/Documents/Solar/occulted_flares/data/dat_files'
p3844
aS'/Users/wheatley/Documents/Solar/occulted_flares/data/dat_files'
p3845
aS'/Users/wheatley/Documents/Solar/occulted_flares/data/dat_files'
p3846
aS'/Users/wheatley/Documents/Solar/occulted_flares/data/dat_files'
p3847
aS'/Users/wheatley/Documents/Solar/occulted_flares/data/dat_files'
p3848
aS'/Users/wheatley/Documents/Solar/occulted_flares/data/dat_files'
p3849
aS'/Users/wheatley/Documents/Solar/occulted_flares/data/dat_files'
p3850
aS'/Users/wheatley/Documents/Solar/occulted_flares/data/dat_files'
p3851
aS'/Users/wheatley/Documents/Solar/occulted_flares/data/dat_files'
p3852
aS'/Users/wheatley/Documents/Solar/occulted_flares/data/dat_files'
p3853
aS'/Users/wheatley/Documents/Solar/occulted_flares/data/dat_files'
p3854
aS'/Users/wheatley/Documents/Solar/occulted_flares/data/dat_files'
p3855
aS'/Users/wheatley/Documents/Solar/occulted_flares/data/dat_files'
p3856
aS'/Users/wheatley/Documents/Solar/occulted_flares/data/dat_files'
p3857
aS'/Users/wheatley/Documents/Solar/occulted_flares/data/dat_files'
p3858
aS'/Users/wheatley/Documents/Solar/occulted_flares/data/dat_files'
p3859
aS'/Users/wheatley/Documents/Solar/occulted_flares/data/dat_files'
p3860
aS'/Users/wheatley/Documents/Solar/occulted_flares/data/dat_files'
p3861
aS'/Users/wheatley/Documents/Solar/occulted_flares/data/dat_files'
p3862
aS'/Users/wheatley/Documents/Solar/occulted_flares/data/dat_files'
p3863
aS'/Users/wheatley/Documents/Solar/occulted_flares/data/dat_files'
p3864
aS'/Users/wheatley/Documents/Solar/occulted_flares/data/dat_files'
p3865
aS'/Users/wheatley/Documents/Solar/occulted_flares/data/dat_files'
p3866
aS'/Users/wheatley/Documents/Solar/occulted_flares/data/dat_files'
p3867
aS'/Users/wheatley/Documents/Solar/occulted_flares/data/dat_files'
p3868
aS'/Users/wheatley/Documents/Solar/occulted_flares/data/dat_files'
p3869
aS'/Users/wheatley/Documents/Solar/occulted_flares/data/dat_files'
p3870
aS'/Users/wheatley/Documents/Solar/occulted_flares/data/dat_files'
p3871
aS'/Users/wheatley/Documents/Solar/occulted_flares/data/dat_files'
p3872
aS'/Users/wheatley/Documents/Solar/occulted_flares/data/dat_files'
p3873
aS'/Users/wheatley/Documents/Solar/occulted_flares/data/dat_files'
p3874
aS'/Users/wheatley/Documents/Solar/occulted_flares/data/dat_files'
p3875
aS'/Users/wheatley/Documents/Solar/occulted_flares/data/dat_files'
p3876
aS'/Users/wheatley/Documents/Solar/occulted_flares/data/dat_files'
p3877
aS'/Users/wheatley/Documents/Solar/occulted_flares/data/dat_files'
p3878
aS'/Users/wheatley/Documents/Solar/occulted_flares/data/dat_files'
p3879
aS'/Users/wheatley/Documents/Solar/occulted_flares/data/dat_files'
p3880
aS'/Users/wheatley/Documents/Solar/occulted_flares/data/dat_files'
p3881
aS'/Users/wheatley/Documents/Solar/occulted_flares/data/dat_files'
p3882
aS'/Users/wheatley/Documents/Solar/occulted_flares/data/dat_files'
p3883
aS'/Users/wheatley/Documents/Solar/occulted_flares/data/dat_files'
p3884
aS'/Users/wheatley/Documents/Solar/occulted_flares/data/dat_files'
p3885
aS'/Users/wheatley/Documents/Solar/occulted_flares/data/dat_files'
p3886
aS'/Users/wheatley/Documents/Solar/occulted_flares/data/dat_files'
p3887
aS'/Users/wheatley/Documents/Solar/occulted_flares/data/dat_files'
p3888
aS'/Users/wheatley/Documents/Solar/occulted_flares/data/dat_files'
p3889
aS'/Users/wheatley/Documents/Solar/occulted_flares/data/dat_files'
p3890
aS'/Users/wheatley/Documents/Solar/occulted_flares/data/dat_files'
p3891
aS'/Users/wheatley/Documents/Solar/occulted_flares/data/dat_files'
p3892
aS'/Users/wheatley/Documents/Solar/occulted_flares/data/dat_files'
p3893
aS'/Users/wheatley/Documents/Solar/occulted_flares/data/dat_files'
p3894
aS'/Users/wheatley/Documents/Solar/occulted_flares/data/dat_files'
p3895
aS'/Users/wheatley/Documents/Solar/occulted_flares/data/dat_files'
p3896
aS'/Users/wheatley/Documents/Solar/occulted_flares/data/dat_files'
p3897
aS'/Users/wheatley/Documents/Solar/occulted_flares/data/dat_files'
p3898
aS'/Users/wheatley/Documents/Solar/occulted_flares/data/dat_files'
p3899
aS'/Users/wheatley/Documents/Solar/occulted_flares/data/dat_files'
p3900
aS'/Users/wheatley/Documents/Solar/occulted_flares/data/dat_files'
p3901
aS'/Users/wheatley/Documents/Solar/occulted_flares/data/dat_files'
p3902
aS'/Users/wheatley/Documents/Solar/occulted_flares/data/dat_files'
p3903
aS'/Users/wheatley/Documents/Solar/occulted_flares/data/dat_files'
p3904
aS'/Users/wheatley/Documents/Solar/occulted_flares/data/dat_files'
p3905
aS'/Users/wheatley/Documents/Solar/occulted_flares/data/dat_files'
p3906
aS'/Users/wheatley/Documents/Solar/occulted_flares/data/dat_files'
p3907
aS'/Users/wheatley/Documents/Solar/occulted_flares/data/dat_files'
p3908
aS'/Users/wheatley/Documents/Solar/occulted_flares/data/dat_files'
p3909
aS'/Users/wheatley/Documents/Solar/occulted_flares/data/dat_files'
p3910
aS'/Users/wheatley/Documents/Solar/occulted_flares/data/dat_files'
p3911
aS'/Users/wheatley/Documents/Solar/occulted_flares/data/dat_files'
p3912
aS'/Users/wheatley/Documents/Solar/occulted_flares/data/dat_files'
p3913
aS'/Users/wheatley/Documents/Solar/occulted_flares/data/dat_files'
p3914
aS'/Users/wheatley/Documents/Solar/occulted_flares/data/dat_files'
p3915
aS'/Users/wheatley/Documents/Solar/occulted_flares/data/dat_files'
p3916
aS'/Users/wheatley/Documents/Solar/occulted_flares/data/dat_files'
p3917
aS'/Users/wheatley/Documents/Solar/occulted_flares/data/dat_files'
p3918
aS'/Users/wheatley/Documents/Solar/occulted_flares/data/dat_files'
p3919
aS'/Users/wheatley/Documents/Solar/occulted_flares/data/dat_files'
p3920
aS'/Users/wheatley/Documents/Solar/occulted_flares/data/dat_files'
p3921
aS'/Users/wheatley/Documents/Solar/occulted_flares/data/dat_files'
p3922
aS'/Users/wheatley/Documents/Solar/occulted_flares/data/dat_files'
p3923
aS'/Users/wheatley/Documents/Solar/occulted_flares/data/dat_files'
p3924
aS'/Users/wheatley/Documents/Solar/occulted_flares/data/dat_files'
p3925
aS'/Users/wheatley/Documents/Solar/occulted_flares/data/dat_files'
p3926
aS'/Users/wheatley/Documents/Solar/occulted_flares/data/dat_files'
p3927
aS'/Users/wheatley/Documents/Solar/occulted_flares/data/dat_files'
p3928
aS'/Users/wheatley/Documents/Solar/occulted_flares/data/dat_files'
p3929
aS'/Users/wheatley/Documents/Solar/occulted_flares/data/dat_files'
p3930
aS'/Users/wheatley/Documents/Solar/occulted_flares/data/dat_files'
p3931
aS'/Users/wheatley/Documents/Solar/occulted_flares/data/dat_files'
p3932
aS'/Users/wheatley/Documents/Solar/occulted_flares/data/dat_files'
p3933
aS'/Users/wheatley/Documents/Solar/occulted_flares/data/dat_files'
p3934
aS'/Users/wheatley/Documents/Solar/occulted_flares/data/dat_files'
p3935
aS'/Users/wheatley/Documents/Solar/occulted_flares/data/dat_files'
p3936
aS'/Users/wheatley/Documents/Solar/occulted_flares/data/dat_files'
p3937
aS'/Users/wheatley/Documents/Solar/occulted_flares/data/dat_files'
p3938
aS'/Users/wheatley/Documents/Solar/occulted_flares/data/dat_files'
p3939
aS'/Users/wheatley/Documents/Solar/occulted_flares/data/dat_files'
p3940
aS'/Users/wheatley/Documents/Solar/occulted_flares/data/dat_files'
p3941
aS'/Users/wheatley/Documents/Solar/occulted_flares/data/dat_files'
p3942
aS'/Users/wheatley/Documents/Solar/occulted_flares/data/dat_files'
p3943
aS'/Users/wheatley/Documents/Solar/occulted_flares/data/dat_files'
p3944
aS'/Users/wheatley/Documents/Solar/occulted_flares/data/dat_files'
p3945
aS'/Users/wheatley/Documents/Solar/occulted_flares/data/dat_files'
p3946
aS'/Users/wheatley/Documents/Solar/occulted_flares/data/dat_files'
p3947
aS'/Users/wheatley/Documents/Solar/occulted_flares/data/dat_files'
p3948
aS'/Users/wheatley/Documents/Solar/occulted_flares/data/dat_files'
p3949
aS'/Users/wheatley/Documents/Solar/occulted_flares/data/dat_files'
p3950
aS'/Users/wheatley/Documents/Solar/occulted_flares/data/dat_files'
p3951
aS'/Users/wheatley/Documents/Solar/occulted_flares/data/dat_files'
p3952
aS'/Users/wheatley/Documents/Solar/occulted_flares/data/dat_files'
p3953
aS'/Users/wheatley/Documents/Solar/occulted_flares/data/dat_files'
p3954
aS'/Users/wheatley/Documents/Solar/occulted_flares/data/dat_files'
p3955
aS'/Users/wheatley/Documents/Solar/occulted_flares/data/dat_files'
p3956
aS'/Users/wheatley/Documents/Solar/occulted_flares/data/dat_files'
p3957
aS'/Users/wheatley/Documents/Solar/occulted_flares/data/dat_files'
p3958
aS'/Users/wheatley/Documents/Solar/occulted_flares/data/dat_files'
p3959
aS'/Users/wheatley/Documents/Solar/occulted_flares/data/dat_files'
p3960
aS'/Users/wheatley/Documents/Solar/occulted_flares/data/dat_files'
p3961
aS'/Users/wheatley/Documents/Solar/occulted_flares/data/dat_files'
p3962
aS'/Users/wheatley/Documents/Solar/occulted_flares/data/dat_files'
p3963
aS'/Users/wheatley/Documents/Solar/occulted_flares/data/dat_files'
p3964
aS'/Users/wheatley/Documents/Solar/occulted_flares/data/dat_files'
p3965
aS'/Users/wheatley/Documents/Solar/occulted_flares/data/dat_files'
p3966
aS'/Users/wheatley/Documents/Solar/occulted_flares/data/dat_files'
p3967
aS'/Users/wheatley/Documents/Solar/occulted_flares/data/dat_files'
p3968
aS'/Users/wheatley/Documents/Solar/occulted_flares/data/dat_files'
p3969
aS'/Users/wheatley/Documents/Solar/occulted_flares/data/dat_files'
p3970
aS'/Users/wheatley/Documents/Solar/occulted_flares/data/dat_files'
p3971
aS'/Users/wheatley/Documents/Solar/occulted_flares/data/dat_files'
p3972
aS'/Users/wheatley/Documents/Solar/occulted_flares/data/dat_files'
p3973
aS'/Users/wheatley/Documents/Solar/occulted_flares/data/dat_files'
p3974
aS'/Users/wheatley/Documents/Solar/occulted_flares/data/dat_files'
p3975
aS'/Users/wheatley/Documents/Solar/occulted_flares/data/dat_files'
p3976
aS'/Users/wheatley/Documents/Solar/occulted_flares/data/dat_files'
p3977
aS'/Users/wheatley/Documents/Solar/occulted_flares/data/dat_files'
p3978
aS'/Users/wheatley/Documents/Solar/occulted_flares/data/dat_files'
p3979
aS'/Users/wheatley/Documents/Solar/occulted_flares/data/dat_files'
p3980
aS'/Users/wheatley/Documents/Solar/occulted_flares/data/dat_files'
p3981
aS'/Users/wheatley/Documents/Solar/occulted_flares/data/dat_files'
p3982
aS'/Users/wheatley/Documents/Solar/occulted_flares/data/dat_files'
p3983
aS'/Users/wheatley/Documents/Solar/occulted_flares/data/dat_files'
p3984
aS'/Users/wheatley/Documents/Solar/occulted_flares/data/dat_files'
p3985
aS'/Users/wheatley/Documents/Solar/occulted_flares/data/dat_files'
p3986
aS'/Users/wheatley/Documents/Solar/occulted_flares/data/dat_files'
p3987
aS'/Users/wheatley/Documents/Solar/occulted_flares/data/dat_files'
p3988
aS'/Users/wheatley/Documents/Solar/occulted_flares/data/dat_files'
p3989
aS'/Users/wheatley/Documents/Solar/occulted_flares/data/dat_files'
p3990
aS'/Users/wheatley/Documents/Solar/occulted_flares/data/dat_files'
p3991
aS'/Users/wheatley/Documents/Solar/occulted_flares/data/dat_files'
p3992
aS'/Users/wheatley/Documents/Solar/occulted_flares/data/dat_files'
p3993
aS'/Users/wheatley/Documents/Solar/occulted_flares/data/dat_files'
p3994
aS'/Users/wheatley/Documents/Solar/occulted_flares/data/dat_files'
p3995
aS'/Users/wheatley/Documents/Solar/occulted_flares/data/dat_files'
p3996
aS'/Users/wheatley/Documents/Solar/occulted_flares/data/dat_files'
p3997
aS'/Users/wheatley/Documents/Solar/occulted_flares/data/dat_files'
p3998
aS'/Users/wheatley/Documents/Solar/occulted_flares/data/dat_files'
p3999
aS'/Users/wheatley/Documents/Solar/occulted_flares/data/dat_files'
p4000
aS'/Users/wheatley/Documents/Solar/occulted_flares/data/dat_files'
p4001
aS'/Users/wheatley/Documents/Solar/occulted_flares/data/dat_files'
p4002
aS'/Users/wheatley/Documents/Solar/occulted_flares/data/dat_files'
p4003
aS'/Users/wheatley/Documents/Solar/occulted_flares/data/dat_files'
p4004
aS'/Users/wheatley/Documents/Solar/occulted_flares/data/dat_files'
p4005
aS'/Users/wheatley/Documents/Solar/occulted_flares/data/dat_files'
p4006
aS'/Users/wheatley/Documents/Solar/occulted_flares/data/dat_files'
p4007
aS'/Users/wheatley/Documents/Solar/occulted_flares/data/dat_files'
p4008
aS'/Users/wheatley/Documents/Solar/occulted_flares/data/dat_files'
p4009
aS'/Users/wheatley/Documents/Solar/occulted_flares/data/dat_files'
p4010
aS'/Users/wheatley/Documents/Solar/occulted_flares/data/dat_files'
p4011
aS'/Users/wheatley/Documents/Solar/occulted_flares/data/dat_files'
p4012
aS'/Users/wheatley/Documents/Solar/occulted_flares/data/dat_files'
p4013
aS'/Users/wheatley/Documents/Solar/occulted_flares/data/dat_files'
p4014
aS'/Users/wheatley/Documents/Solar/occulted_flares/data/dat_files'
p4015
aS'/Users/wheatley/Documents/Solar/occulted_flares/data/dat_files'
p4016
aS'/Users/wheatley/Documents/Solar/occulted_flares/data/dat_files'
p4017
aS'/Users/wheatley/Documents/Solar/occulted_flares/data/dat_files'
p4018
aS'/Users/wheatley/Documents/Solar/occulted_flares/data/dat_files'
p4019
aS'/Users/wheatley/Documents/Solar/occulted_flares/data/dat_files'
p4020
aS'/Users/wheatley/Documents/Solar/occulted_flares/data/dat_files'
p4021
aS'/Users/wheatley/Documents/Solar/occulted_flares/data/dat_files'
p4022
aS'/Users/wheatley/Documents/Solar/occulted_flares/data/dat_files'
p4023
aS'/Users/wheatley/Documents/Solar/occulted_flares/data/dat_files'
p4024
aS'/Users/wheatley/Documents/Solar/occulted_flares/data/dat_files'
p4025
aS'/Users/wheatley/Documents/Solar/occulted_flares/data/dat_files'
p4026
aS'/Users/wheatley/Documents/Solar/occulted_flares/data/dat_files'
p4027
aS'/Users/wheatley/Documents/Solar/occulted_flares/data/dat_files'
p4028
aS'/Users/wheatley/Documents/Solar/occulted_flares/data/dat_files'
p4029
aS'/Users/wheatley/Documents/Solar/occulted_flares/data/dat_files'
p4030
aS'/Users/wheatley/Documents/Solar/occulted_flares/data/dat_files'
p4031
aS'/Users/wheatley/Documents/Solar/occulted_flares/data/dat_files'
p4032
aS'/Users/wheatley/Documents/Solar/occulted_flares/data/dat_files'
p4033
aS'/Users/wheatley/Documents/Solar/occulted_flares/data/dat_files'
p4034
aS'/Users/wheatley/Documents/Solar/occulted_flares/data/dat_files'
p4035
aS'/Users/wheatley/Documents/Solar/occulted_flares/data/dat_files'
p4036
aS'/Users/wheatley/Documents/Solar/occulted_flares/data/dat_files'
p4037
aS'/Users/wheatley/Documents/Solar/occulted_flares/data/dat_files'
p4038
aS'/Users/wheatley/Documents/Solar/occulted_flares/data/dat_files'
p4039
asS'csv_name'
p4040
(lp4041
S'list_matches_obj.csv'
p4042
aS'list_matches_obj.csv'
p4043
aS'list_matches_obj.csv'
p4044
aS'list_matches_obj.csv'
p4045
aS'list_matches_obj.csv'
p4046
aS'list_matches_obj.csv'
p4047
aS'list_matches_obj.csv'
p4048
aS'list_matches_obj.csv'
p4049
aS'list_matches_obj.csv'
p4050
aS'list_matches_obj.csv'
p4051
aS'list_matches_obj.csv'
p4052
aS'list_matches_obj.csv'
p4053
aS'list_matches_obj.csv'
p4054
aS'list_matches_obj.csv'
p4055
aS'list_matches_obj.csv'
p4056
aS'list_matches_obj.csv'
p4057
aS'list_matches_obj.csv'
p4058
aS'list_matches_obj.csv'
p4059
aS'list_matches_obj.csv'
p4060
aS'list_matches_obj.csv'
p4061
aS'list_matches_obj.csv'
p4062
aS'list_matches_obj.csv'
p4063
aS'list_matches_obj.csv'
p4064
aS'list_matches_obj.csv'
p4065
aS'list_matches_obj.csv'
p4066
aS'list_matches_obj.csv'
p4067
aS'list_matches_obj.csv'
p4068
aS'list_matches_obj.csv'
p4069
aS'list_matches_obj.csv'
p4070
aS'list_matches_obj.csv'
p4071
aS'list_matches_obj.csv'
p4072
aS'list_matches_obj.csv'
p4073
aS'list_matches_obj.csv'
p4074
aS'list_matches_obj.csv'
p4075
aS'list_matches_obj.csv'
p4076
aS'list_matches_obj.csv'
p4077
aS'list_matches_obj.csv'
p4078
aS'list_matches_obj.csv'
p4079
aS'list_matches_obj.csv'
p4080
aS'list_matches_obj.csv'
p4081
aS'list_matches_obj.csv'
p4082
aS'list_matches_obj.csv'
p4083
aS'list_matches_obj.csv'
p4084
aS'list_matches_obj.csv'
p4085
aS'list_matches_obj.csv'
p4086
aS'list_matches_obj.csv'
p4087
aS'list_matches_obj.csv'
p4088
aS'list_matches_obj.csv'
p4089
aS'list_matches_obj.csv'
p4090
aS'list_matches_obj.csv'
p4091
aS'list_matches_obj.csv'
p4092
aS'list_matches_obj.csv'
p4093
aS'list_matches_obj.csv'
p4094
aS'list_matches_obj.csv'
p4095
aS'list_matches_obj.csv'
p4096
aS'list_matches_obj.csv'
p4097
aS'list_matches_obj.csv'
p4098
aS'list_matches_obj.csv'
p4099
aS'list_matches_obj.csv'
p4100
aS'list_matches_obj.csv'
p4101
aS'list_matches_obj.csv'
p4102
aS'list_matches_obj.csv'
p4103
aS'list_matches_obj.csv'
p4104
aS'list_matches_obj.csv'
p4105
aS'list_matches_obj.csv'
p4106
aS'list_matches_obj.csv'
p4107
aS'list_matches_obj.csv'
p4108
aS'list_matches_obj.csv'
p4109
aS'list_matches_obj.csv'
p4110
aS'list_matches_obj.csv'
p4111
aS'list_matches_obj.csv'
p4112
aS'list_matches_obj.csv'
p4113
aS'list_matches_obj.csv'
p4114
aS'list_matches_obj.csv'
p4115
aS'list_matches_obj.csv'
p4116
aS'list_matches_obj.csv'
p4117
aS'list_matches_obj.csv'
p4118
aS'list_matches_obj.csv'
p4119
aS'list_matches_obj.csv'
p4120
aS'list_matches_obj.csv'
p4121
aS'list_matches_obj.csv'
p4122
aS'list_matches_obj.csv'
p4123
aS'list_matches_obj.csv'
p4124
aS'list_matches_obj.csv'
p4125
aS'list_matches_obj.csv'
p4126
aS'list_matches_obj.csv'
p4127
aS'list_matches_obj.csv'
p4128
aS'list_matches_obj.csv'
p4129
aS'list_matches_obj.csv'
p4130
aS'list_matches_obj.csv'
p4131
aS'list_matches_obj.csv'
p4132
aS'list_matches_obj.csv'
p4133
aS'list_matches_obj.csv'
p4134
aS'list_matches_obj.csv'
p4135
aS'list_matches_obj.csv'
p4136
aS'list_matches_obj.csv'
p4137
aS'list_matches_obj.csv'
p4138
aS'list_matches_obj.csv'
p4139
aS'list_matches_obj.csv'
p4140
aS'list_matches_obj.csv'
p4141
aS'list_matches_obj.csv'
p4142
aS'list_matches_obj.csv'
p4143
aS'list_matches_obj.csv'
p4144
aS'list_matches_obj.csv'
p4145
aS'list_matches_obj.csv'
p4146
aS'list_matches_obj.csv'
p4147
aS'list_matches_obj.csv'
p4148
aS'list_matches_obj.csv'
p4149
aS'list_matches_obj.csv'
p4150
aS'list_matches_obj.csv'
p4151
aS'list_matches_obj.csv'
p4152
aS'list_matches_obj.csv'
p4153
aS'list_matches_obj.csv'
p4154
aS'list_matches_obj.csv'
p4155
aS'list_matches_obj.csv'
p4156
aS'list_matches_obj.csv'
p4157
aS'list_matches_obj.csv'
p4158
aS'list_matches_obj.csv'
p4159
aS'list_matches_obj.csv'
p4160
aS'list_matches_obj.csv'
p4161
aS'list_matches_obj.csv'
p4162
aS'list_matches_obj.csv'
p4163
aS'list_matches_obj.csv'
p4164
aS'list_matches_obj.csv'
p4165
aS'list_matches_obj.csv'
p4166
aS'list_matches_obj.csv'
p4167
aS'list_matches_obj.csv'
p4168
aS'list_matches_obj.csv'
p4169
aS'list_matches_obj.csv'
p4170
aS'list_matches_obj.csv'
p4171
aS'list_matches_obj.csv'
p4172
aS'list_matches_obj.csv'
p4173
aS'list_matches_obj.csv'
p4174
aS'list_matches_obj.csv'
p4175
aS'list_matches_obj.csv'
p4176
aS'list_matches_obj.csv'
p4177
aS'list_matches_obj.csv'
p4178
aS'list_matches_obj.csv'
p4179
aS'list_matches_obj.csv'
p4180
aS'list_matches_obj.csv'
p4181
aS'list_matches_obj.csv'
p4182
aS'list_matches_obj.csv'
p4183
aS'list_matches_obj.csv'
p4184
aS'list_matches_obj.csv'
p4185
aS'list_matches_obj.csv'
p4186
aS'list_matches_obj.csv'
p4187
aS'list_matches_obj.csv'
p4188
aS'list_matches_obj.csv'
p4189
aS'list_matches_obj.csv'
p4190
aS'list_matches_obj.csv'
p4191
aS'list_matches_obj.csv'
p4192
aS'list_matches_obj.csv'
p4193
aS'list_matches_obj.csv'
p4194
aS'list_matches_obj.csv'
p4195
aS'list_matches_obj.csv'
p4196
aS'list_matches_obj.csv'
p4197
aS'list_matches_obj.csv'
p4198
aS'list_matches_obj.csv'
p4199
aS'list_matches_obj.csv'
p4200
aS'list_matches_obj.csv'
p4201
aS'list_matches_obj.csv'
p4202
aS'list_matches_obj.csv'
p4203
aS'list_matches_obj.csv'
p4204
aS'list_matches_obj.csv'
p4205
aS'list_matches_obj.csv'
p4206
aS'list_matches_obj.csv'
p4207
aS'list_matches_obj.csv'
p4208
aS'list_matches_obj.csv'
p4209
aS'list_matches_obj.csv'
p4210
aS'list_matches_obj.csv'
p4211
aS'list_matches_obj.csv'
p4212
aS'list_matches_obj.csv'
p4213
aS'list_matches_obj.csv'
p4214
aS'list_matches_obj.csv'
p4215
aS'list_matches_obj.csv'
p4216
aS'list_matches_obj.csv'
p4217
aS'list_matches_obj.csv'
p4218
aS'list_matches_obj.csv'
p4219
aS'list_matches_obj.csv'
p4220
aS'list_matches_obj.csv'
p4221
aS'list_matches_obj.csv'
p4222
aS'list_matches_obj.csv'
p4223
aS'list_matches_obj.csv'
p4224
aS'list_matches_obj.csv'
p4225
aS'list_matches_obj.csv'
p4226
aS'list_matches_obj.csv'
p4227
aS'list_matches_obj.csv'
p4228
aS'list_matches_obj.csv'
p4229
aS'list_matches_obj.csv'
p4230
aS'list_matches_obj.csv'
p4231
aS'list_matches_obj.csv'
p4232
aS'list_matches_obj.csv'
p4233
aS'list_matches_obj.csv'
p4234
aS'list_matches_obj.csv'
p4235
aS'list_matches_obj.csv'
p4236
aS'list_matches_obj.csv'
p4237
aS'list_matches_obj.csv'
p4238
aS'list_matches_obj.csv'
p4239
aS'list_matches_obj.csv'
p4240
aS'list_matches_obj.csv'
p4241
aS'list_matches_obj.csv'
p4242
aS'list_matches_obj.csv'
p4243
aS'list_matches_obj.csv'
p4244
aS'list_matches_obj.csv'
p4245
aS'list_matches_obj.csv'
p4246
aS'list_matches_obj.csv'
p4247
aS'list_matches_obj.csv'
p4248
aS'list_matches_obj.csv'
p4249
aS'list_matches_obj.csv'
p4250
aS'list_matches_obj.csv'
p4251
aS'list_matches_obj.csv'
p4252
aS'list_matches_obj.csv'
p4253
aS'list_matches_obj.csv'
p4254
aS'list_matches_obj.csv'
p4255
aS'list_matches_obj.csv'
p4256
asS'RHESSI_data_path'
p4257
(lp4258
S'/Users/wheatley/Documents/Solar/occulted_flares/data/'
p4259
aS'/Users/wheatley/Documents/Solar/occulted_flares/data/'
p4260
aS'/Users/wheatley/Documents/Solar/occulted_flares/data/'
p4261
aS'/Users/wheatley/Documents/Solar/occulted_flares/data/'
p4262
aS'/Users/wheatley/Documents/Solar/occulted_flares/data/'
p4263
aS'/Users/wheatley/Documents/Solar/occulted_flares/data/'
p4264
aS'/Users/wheatley/Documents/Solar/occulted_flares/data/'
p4265
aS'/Users/wheatley/Documents/Solar/occulted_flares/data/'
p4266
aS'/Users/wheatley/Documents/Solar/occulted_flares/data/'
p4267
aS'/Users/wheatley/Documents/Solar/occulted_flares/data/'
p4268
aS'/Users/wheatley/Documents/Solar/occulted_flares/data/'
p4269
aS'/Users/wheatley/Documents/Solar/occulted_flares/data/'
p4270
aS'/Users/wheatley/Documents/Solar/occulted_flares/data/'
p4271
aS'/Users/wheatley/Documents/Solar/occulted_flares/data/'
p4272
aS'/Users/wheatley/Documents/Solar/occulted_flares/data/'
p4273
aS'/Users/wheatley/Documents/Solar/occulted_flares/data/'
p4274
aS'/Users/wheatley/Documents/Solar/occulted_flares/data/'
p4275
aS'/Users/wheatley/Documents/Solar/occulted_flares/data/'
p4276
aS'/Users/wheatley/Documents/Solar/occulted_flares/data/'
p4277
aS'/Users/wheatley/Documents/Solar/occulted_flares/data/'
p4278
aS'/Users/wheatley/Documents/Solar/occulted_flares/data/'
p4279
aS'/Users/wheatley/Documents/Solar/occulted_flares/data/'
p4280
aS'/Users/wheatley/Documents/Solar/occulted_flares/data/'
p4281
aS'/Users/wheatley/Documents/Solar/occulted_flares/data/'
p4282
aS'/Users/wheatley/Documents/Solar/occulted_flares/data/'
p4283
aS'/Users/wheatley/Documents/Solar/occulted_flares/data/'
p4284
aS'/Users/wheatley/Documents/Solar/occulted_flares/data/'
p4285
aS'/Users/wheatley/Documents/Solar/occulted_flares/data/'
p4286
aS'/Users/wheatley/Documents/Solar/occulted_flares/data/'
p4287
aS'/Users/wheatley/Documents/Solar/occulted_flares/data/'
p4288
aS'/Users/wheatley/Documents/Solar/occulted_flares/data/'
p4289
aS'/Users/wheatley/Documents/Solar/occulted_flares/data/'
p4290
aS'/Users/wheatley/Documents/Solar/occulted_flares/data/'
p4291
aS'/Users/wheatley/Documents/Solar/occulted_flares/data/'
p4292
aS'/Users/wheatley/Documents/Solar/occulted_flares/data/'
p4293
aS'/Users/wheatley/Documents/Solar/occulted_flares/data/'
p4294
aS'/Users/wheatley/Documents/Solar/occulted_flares/data/'
p4295
aS'/Users/wheatley/Documents/Solar/occulted_flares/data/'
p4296
aS'/Users/wheatley/Documents/Solar/occulted_flares/data/'
p4297
aS'/Users/wheatley/Documents/Solar/occulted_flares/data/'
p4298
aS'/Users/wheatley/Documents/Solar/occulted_flares/data/'
p4299
aS'/Users/wheatley/Documents/Solar/occulted_flares/data/'
p4300
aS'/Users/wheatley/Documents/Solar/occulted_flares/data/'
p4301
aS'/Users/wheatley/Documents/Solar/occulted_flares/data/'
p4302
aS'/Users/wheatley/Documents/Solar/occulted_flares/data/'
p4303
aS'/Users/wheatley/Documents/Solar/occulted_flares/data/'
p4304
aS'/Users/wheatley/Documents/Solar/occulted_flares/data/'
p4305
aS'/Users/wheatley/Documents/Solar/occulted_flares/data/'
p4306
aS'/Users/wheatley/Documents/Solar/occulted_flares/data/'
p4307
aS'/Users/wheatley/Documents/Solar/occulted_flares/data/'
p4308
aS'/Users/wheatley/Documents/Solar/occulted_flares/data/'
p4309
aS'/Users/wheatley/Documents/Solar/occulted_flares/data/'
p4310
aS'/Users/wheatley/Documents/Solar/occulted_flares/data/'
p4311
aS'/Users/wheatley/Documents/Solar/occulted_flares/data/'
p4312
aS'/Users/wheatley/Documents/Solar/occulted_flares/data/'
p4313
aS'/Users/wheatley/Documents/Solar/occulted_flares/data/'
p4314
aS'/Users/wheatley/Documents/Solar/occulted_flares/data/'
p4315
aS'/Users/wheatley/Documents/Solar/occulted_flares/data/'
p4316
aS'/Users/wheatley/Documents/Solar/occulted_flares/data/'
p4317
aS'/Users/wheatley/Documents/Solar/occulted_flares/data/'
p4318
aS'/Users/wheatley/Documents/Solar/occulted_flares/data/'
p4319
aS'/Users/wheatley/Documents/Solar/occulted_flares/data/'
p4320
aS'/Users/wheatley/Documents/Solar/occulted_flares/data/'
p4321
aS'/Users/wheatley/Documents/Solar/occulted_flares/data/'
p4322
aS'/Users/wheatley/Documents/Solar/occulted_flares/data/'
p4323
aS'/Users/wheatley/Documents/Solar/occulted_flares/data/'
p4324
aS'/Users/wheatley/Documents/Solar/occulted_flares/data/'
p4325
aS'/Users/wheatley/Documents/Solar/occulted_flares/data/'
p4326
aS'/Users/wheatley/Documents/Solar/occulted_flares/data/'
p4327
aS'/Users/wheatley/Documents/Solar/occulted_flares/data/'
p4328
aS'/Users/wheatley/Documents/Solar/occulted_flares/data/'
p4329
aS'/Users/wheatley/Documents/Solar/occulted_flares/data/'
p4330
aS'/Users/wheatley/Documents/Solar/occulted_flares/data/'
p4331
aS'/Users/wheatley/Documents/Solar/occulted_flares/data/'
p4332
aS'/Users/wheatley/Documents/Solar/occulted_flares/data/'
p4333
aS'/Users/wheatley/Documents/Solar/occulted_flares/data/'
p4334
aS'/Users/wheatley/Documents/Solar/occulted_flares/data/'
p4335
aS'/Users/wheatley/Documents/Solar/occulted_flares/data/'
p4336
aS'/Users/wheatley/Documents/Solar/occulted_flares/data/'
p4337
aS'/Users/wheatley/Documents/Solar/occulted_flares/data/'
p4338
aS'/Users/wheatley/Documents/Solar/occulted_flares/data/'
p4339
aS'/Users/wheatley/Documents/Solar/occulted_flares/data/'
p4340
aS'/Users/wheatley/Documents/Solar/occulted_flares/data/'
p4341
aS'/Users/wheatley/Documents/Solar/occulted_flares/data/'
p4342
aS'/Users/wheatley/Documents/Solar/occulted_flares/data/'
p4343
aS'/Users/wheatley/Documents/Solar/occulted_flares/data/'
p4344
aS'/Users/wheatley/Documents/Solar/occulted_flares/data/'
p4345
aS'/Users/wheatley/Documents/Solar/occulted_flares/data/'
p4346
aS'/Users/wheatley/Documents/Solar/occulted_flares/data/'
p4347
aS'/Users/wheatley/Documents/Solar/occulted_flares/data/'
p4348
aS'/Users/wheatley/Documents/Solar/occulted_flares/data/'
p4349
aS'/Users/wheatley/Documents/Solar/occulted_flares/data/'
p4350
aS'/Users/wheatley/Documents/Solar/occulted_flares/data/'
p4351
aS'/Users/wheatley/Documents/Solar/occulted_flares/data/'
p4352
aS'/Users/wheatley/Documents/Solar/occulted_flares/data/'
p4353
aS'/Users/wheatley/Documents/Solar/occulted_flares/data/'
p4354
aS'/Users/wheatley/Documents/Solar/occulted_flares/data/'
p4355
aS'/Users/wheatley/Documents/Solar/occulted_flares/data/'
p4356
aS'/Users/wheatley/Documents/Solar/occulted_flares/data/'
p4357
aS'/Users/wheatley/Documents/Solar/occulted_flares/data/'
p4358
aS'/Users/wheatley/Documents/Solar/occulted_flares/data/'
p4359
aS'/Users/wheatley/Documents/Solar/occulted_flares/data/'
p4360
aS'/Users/wheatley/Documents/Solar/occulted_flares/data/'
p4361
aS'/Users/wheatley/Documents/Solar/occulted_flares/data/'
p4362
aS'/Users/wheatley/Documents/Solar/occulted_flares/data/'
p4363
aS'/Users/wheatley/Documents/Solar/occulted_flares/data/'
p4364
aS'/Users/wheatley/Documents/Solar/occulted_flares/data/'
p4365
aS'/Users/wheatley/Documents/Solar/occulted_flares/data/'
p4366
aS'/Users/wheatley/Documents/Solar/occulted_flares/data/'
p4367
aS'/Users/wheatley/Documents/Solar/occulted_flares/data/'
p4368
aS'/Users/wheatley/Documents/Solar/occulted_flares/data/'
p4369
aS'/Users/wheatley/Documents/Solar/occulted_flares/data/'
p4370
aS'/Users/wheatley/Documents/Solar/occulted_flares/data/'
p4371
aS'/Users/wheatley/Documents/Solar/occulted_flares/data/'
p4372
aS'/Users/wheatley/Documents/Solar/occulted_flares/data/'
p4373
aS'/Users/wheatley/Documents/Solar/occulted_flares/data/'
p4374
aS'/Users/wheatley/Documents/Solar/occulted_flares/data/'
p4375
aS'/Users/wheatley/Documents/Solar/occulted_flares/data/'
p4376
aS'/Users/wheatley/Documents/Solar/occulted_flares/data/'
p4377
aS'/Users/wheatley/Documents/Solar/occulted_flares/data/'
p4378
aS'/Users/wheatley/Documents/Solar/occulted_flares/data/'
p4379
aS'/Users/wheatley/Documents/Solar/occulted_flares/data/'
p4380
aS'/Users/wheatley/Documents/Solar/occulted_flares/data/'
p4381
aS'/Users/wheatley/Documents/Solar/occulted_flares/data/'
p4382
aS'/Users/wheatley/Documents/Solar/occulted_flares/data/'
p4383
aS'/Users/wheatley/Documents/Solar/occulted_flares/data/'
p4384
aS'/Users/wheatley/Documents/Solar/occulted_flares/data/'
p4385
aS'/Users/wheatley/Documents/Solar/occulted_flares/data/'
p4386
aS'/Users/wheatley/Documents/Solar/occulted_flares/data/'
p4387
aS'/Users/wheatley/Documents/Solar/occulted_flares/data/'
p4388
aS'/Users/wheatley/Documents/Solar/occulted_flares/data/'
p4389
aS'/Users/wheatley/Documents/Solar/occulted_flares/data/'
p4390
aS'/Users/wheatley/Documents/Solar/occulted_flares/data/'
p4391
aS'/Users/wheatley/Documents/Solar/occulted_flares/data/'
p4392
aS'/Users/wheatley/Documents/Solar/occulted_flares/data/'
p4393
aS'/Users/wheatley/Documents/Solar/occulted_flares/data/'
p4394
aS'/Users/wheatley/Documents/Solar/occulted_flares/data/'
p4395
aS'/Users/wheatley/Documents/Solar/occulted_flares/data/'
p4396
aS'/Users/wheatley/Documents/Solar/occulted_flares/data/'
p4397
aS'/Users/wheatley/Documents/Solar/occulted_flares/data/'
p4398
aS'/Users/wheatley/Documents/Solar/occulted_flares/data/'
p4399
aS'/Users/wheatley/Documents/Solar/occulted_flares/data/'
p4400
aS'/Users/wheatley/Documents/Solar/occulted_flares/data/'
p4401
aS'/Users/wheatley/Documents/Solar/occulted_flares/data/'
p4402
aS'/Users/wheatley/Documents/Solar/occulted_flares/data/'
p4403
aS'/Users/wheatley/Documents/Solar/occulted_flares/data/'
p4404
aS'/Users/wheatley/Documents/Solar/occulted_flares/data/'
p4405
aS'/Users/wheatley/Documents/Solar/occulted_flares/data/'
p4406
aS'/Users/wheatley/Documents/Solar/occulted_flares/data/'
p4407
aS'/Users/wheatley/Documents/Solar/occulted_flares/data/'
p4408
aS'/Users/wheatley/Documents/Solar/occulted_flares/data/'
p4409
aS'/Users/wheatley/Documents/Solar/occulted_flares/data/'
p4410
aS'/Users/wheatley/Documents/Solar/occulted_flares/data/'
p4411
aS'/Users/wheatley/Documents/Solar/occulted_flares/data/'
p4412
aS'/Users/wheatley/Documents/Solar/occulted_flares/data/'
p4413
aS'/Users/wheatley/Documents/Solar/occulted_flares/data/'
p4414
aS'/Users/wheatley/Documents/Solar/occulted_flares/data/'
p4415
aS'/Users/wheatley/Documents/Solar/occulted_flares/data/'
p4416
aS'/Users/wheatley/Documents/Solar/occulted_flares/data/'
p4417
aS'/Users/wheatley/Documents/Solar/occulted_flares/data/'
p4418
aS'/Users/wheatley/Documents/Solar/occulted_flares/data/'
p4419
aS'/Users/wheatley/Documents/Solar/occulted_flares/data/'
p4420
aS'/Users/wheatley/Documents/Solar/occulted_flares/data/'
p4421
aS'/Users/wheatley/Documents/Solar/occulted_flares/data/'
p4422
aS'/Users/wheatley/Documents/Solar/occulted_flares/data/'
p4423
aS'/Users/wheatley/Documents/Solar/occulted_flares/data/'
p4424
aS'/Users/wheatley/Documents/Solar/occulted_flares/data/'
p4425
aS'/Users/wheatley/Documents/Solar/occulted_flares/data/'
p4426
aS'/Users/wheatley/Documents/Solar/occulted_flares/data/'
p4427
aS'/Users/wheatley/Documents/Solar/occulted_flares/data/'
p4428
aS'/Users/wheatley/Documents/Solar/occulted_flares/data/'
p4429
aS'/Users/wheatley/Documents/Solar/occulted_flares/data/'
p4430
aS'/Users/wheatley/Documents/Solar/occulted_flares/data/'
p4431
aS'/Users/wheatley/Documents/Solar/occulted_flares/data/'
p4432
aS'/Users/wheatley/Documents/Solar/occulted_flares/data/'
p4433
aS'/Users/wheatley/Documents/Solar/occulted_flares/data/'
p4434
aS'/Users/wheatley/Documents/Solar/occulted_flares/data/'
p4435
aS'/Users/wheatley/Documents/Solar/occulted_flares/data/'
p4436
aS'/Users/wheatley/Documents/Solar/occulted_flares/data/'
p4437
aS'/Users/wheatley/Documents/Solar/occulted_flares/data/'
p4438
aS'/Users/wheatley/Documents/Solar/occulted_flares/data/'
p4439
aS'/Users/wheatley/Documents/Solar/occulted_flares/data/'
p4440
aS'/Users/wheatley/Documents/Solar/occulted_flares/data/'
p4441
aS'/Users/wheatley/Documents/Solar/occulted_flares/data/'
p4442
aS'/Users/wheatley/Documents/Solar/occulted_flares/data/'
p4443
aS'/Users/wheatley/Documents/Solar/occulted_flares/data/'
p4444
aS'/Users/wheatley/Documents/Solar/occulted_flares/data/'
p4445
aS'/Users/wheatley/Documents/Solar/occulted_flares/data/'
p4446
aS'/Users/wheatley/Documents/Solar/occulted_flares/data/'
p4447
aS'/Users/wheatley/Documents/Solar/occulted_flares/data/'
p4448
aS'/Users/wheatley/Documents/Solar/occulted_flares/data/'
p4449
aS'/Users/wheatley/Documents/Solar/occulted_flares/data/'
p4450
aS'/Users/wheatley/Documents/Solar/occulted_flares/data/'
p4451
aS'/Users/wheatley/Documents/Solar/occulted_flares/data/'
p4452
aS'/Users/wheatley/Documents/Solar/occulted_flares/data/'
p4453
aS'/Users/wheatley/Documents/Solar/occulted_flares/data/'
p4454
aS'/Users/wheatley/Documents/Solar/occulted_flares/data/'
p4455
aS'/Users/wheatley/Documents/Solar/occulted_flares/data/'
p4456
aS'/Users/wheatley/Documents/Solar/occulted_flares/data/'
p4457
aS'/Users/wheatley/Documents/Solar/occulted_flares/data/'
p4458
aS'/Users/wheatley/Documents/Solar/occulted_flares/data/'
p4459
aS'/Users/wheatley/Documents/Solar/occulted_flares/data/'
p4460
aS'/Users/wheatley/Documents/Solar/occulted_flares/data/'
p4461
aS'/Users/wheatley/Documents/Solar/occulted_flares/data/'
p4462
aS'/Users/wheatley/Documents/Solar/occulted_flares/data/'
p4463
aS'/Users/wheatley/Documents/Solar/occulted_flares/data/'
p4464
aS'/Users/wheatley/Documents/Solar/occulted_flares/data/'
p4465
aS'/Users/wheatley/Documents/Solar/occulted_flares/data/'
p4466
aS'/Users/wheatley/Documents/Solar/occulted_flares/data/'
p4467
aS'/Users/wheatley/Documents/Solar/occulted_flares/data/'
p4468
aS'/Users/wheatley/Documents/Solar/occulted_flares/data/'
p4469
aS'/Users/wheatley/Documents/Solar/occulted_flares/data/'
p4470
aS'/Users/wheatley/Documents/Solar/occulted_flares/data/'
p4471
aS'/Users/wheatley/Documents/Solar/occulted_flares/data/'
p4472
aS'/Users/wheatley/Documents/Solar/occulted_flares/data/'
p4473
asS'RHESSI_browser_urls'
p4474
(lp4475
S'nan'
p4476
aS'nan'
p4477
aS'nan'
p4478
aS'nan'
p4479
aS'nan'
p4480
aS'nan'
p4481
aS'nan'
p4482
aS'nan'
p4483
aS'nan'
p4484
aS'nan'
p4485
aS'nan'
p4486
aS'nan'
p4487
aS'nan'
p4488
aS'nan'
p4489
aS'nan'
p4490
aS'nan'
p4491
aS'nan'
p4492
aS'nan'
p4493
aS'nan'
p4494
aS'nan'
p4495
aS'nan'
p4496
aS'nan'
p4497
aS'nan'
p4498
aS'nan'
p4499
aS'nan'
p4500
aS'nan'
p4501
aS'nan'
p4502
aS'nan'
p4503
aS'nan'
p4504
aS'nan'
p4505
aS'nan'
p4506
aS'nan'
p4507
aS'nan'
p4508
aS'nan'
p4509
aS'nan'
p4510
aS'nan'
p4511
aS'nan'
p4512
aS'nan'
p4513
aS'nan'
p4514
aS'nan'
p4515
aS'nan'
p4516
aS'nan'
p4517
aS'nan'
p4518
aS'nan'
p4519
aS'nan'
p4520
aS'nan'
p4521
aS'nan'
p4522
aS'nan'
p4523
aS'nan'
p4524
aS'nan'
p4525
aS'nan'
p4526
aS'nan'
p4527
aS'nan'
p4528
aS'nan'
p4529
aS'nan'
p4530
aS'nan'
p4531
aS'nan'
p4532
aS'nan'
p4533
aS'nan'
p4534
aS'nan'
p4535
aS'nan'
p4536
aS'nan'
p4537
aS'nan'
p4538
aS'nan'
p4539
aS'nan'
p4540
aS'nan'
p4541
aS'nan'
p4542
aS'nan'
p4543
aS'nan'
p4544
aS'nan'
p4545
aS'nan'
p4546
aS'nan'
p4547
aS'nan'
p4548
aS'nan'
p4549
aS'nan'
p4550
aS'nan'
p4551
aS'nan'
p4552
aS'nan'
p4553
aS'nan'
p4554
aS'nan'
p4555
aS'nan'
p4556
aS'nan'
p4557
aS'nan'
p4558
aS'nan'
p4559
aS'nan'
p4560
aS'nan'
p4561
aS'nan'
p4562
aS'nan'
p4563
aS'nan'
p4564
aS'nan'
p4565
aS'nan'
p4566
aS'nan'
p4567
aS'nan'
p4568
aS'nan'
p4569
aS'nan'
p4570
aS'nan'
p4571
aS'nan'
p4572
aS'nan'
p4573
aS'nan'
p4574
aS'nan'
p4575
aS'nan'
p4576
aS'nan'
p4577
aS'nan'
p4578
aS'nan'
p4579
aS'nan'
p4580
aS'nan'
p4581
aS'nan'
p4582
aS'nan'
p4583
aS'nan'
p4584
aS'nan'
p4585
aS'nan'
p4586
aS'nan'
p4587
aS'nan'
p4588
aS'nan'
p4589
aS'nan'
p4590
aS'nan'
p4591
aS'nan'
p4592
aS'nan'
p4593
aS'nan'
p4594
aS'nan'
p4595
aS'nan'
p4596
aS'nan'
p4597
aS'nan'
p4598
aS'nan'
p4599
aS'nan'
p4600
aS'nan'
p4601
aS'nan'
p4602
aS'nan'
p4603
aS'nan'
p4604
aS'nan'
p4605
aS'nan'
p4606
aS'nan'
p4607
aS'nan'
p4608
aS'nan'
p4609
aS'nan'
p4610
aS'nan'
p4611
aS'nan'
p4612
aS'nan'
p4613
aS'nan'
p4614
aS'nan'
p4615
aS'nan'
p4616
aS'nan'
p4617
aS'nan'
p4618
aS'nan'
p4619
aS'nan'
p4620
aS'nan'
p4621
aS'nan'
p4622
aS'nan'
p4623
aS'nan'
p4624
aS'nan'
p4625
aS'nan'
p4626
aS'nan'
p4627
aS'nan'
p4628
aS'nan'
p4629
aS'nan'
p4630
aS'nan'
p4631
aS'nan'
p4632
aS'nan'
p4633
aS'nan'
p4634
aS'nan'
p4635
aS'nan'
p4636
aS'nan'
p4637
aS'nan'
p4638
aS'nan'
p4639
aS'nan'
p4640
aS'nan'
p4641
aS'nan'
p4642
aS'nan'
p4643
aS'nan'
p4644
aS'nan'
p4645
aS'nan'
p4646
aS'nan'
p4647
aS'nan'
p4648
aS'nan'
p4649
aS'nan'
p4650
aS'nan'
p4651
aS'nan'
p4652
aS'nan'
p4653
aS'nan'
p4654
aS'nan'
p4655
aS'nan'
p4656
aS'nan'
p4657
aS'nan'
p4658
aS'nan'
p4659
aS'nan'
p4660
aS'nan'
p4661
aS'nan'
p4662
aS'nan'
p4663
aS'nan'
p4664
aS'nan'
p4665
aS'nan'
p4666
aS'nan'
p4667
aS'nan'
p4668
aS'nan'
p4669
aS'nan'
p4670
aS'nan'
p4671
aS'nan'
p4672
aS'nan'
p4673
aS'nan'
p4674
aS'nan'
p4675
aS'nan'
p4676
aS'nan'
p4677
aS'nan'
p4678
aS'nan'
p4679
aS'nan'
p4680
aS'nan'
p4681
aS'nan'
p4682
aS'nan'
p4683
aS'nan'
p4684
aS'nan'
p4685
aS'nan'
p4686
aS'nan'
p4687
aS'nan'
p4688
aS'nan'
p4689
aS'nan'
p4690
asS'XRS_files'
p4691
(lp4692
S'/xrs2007150'
p4693
aS'/xrs2007153'
p4694
aS'/xrs2007154'
p4695
aS'/xrs2007191'
p4696
aS'/xrs2010037'
p4697
aS'/xrs2010039'
p4698
aS'/xrs2010307'
p4699
aS'/xrs2010310'
p4700
aS'/xrs2011045'
p4701
aS'/xrs2011045'
p4702
aS'/xrs2011045'
p4703
aS'/xrs2011050'
p4704
aS'/xrs2011050'
p4705
aS'/xrs2011050'
p4706
aS'/xrs2011050'
p4707
aS'/xrs2011055'
p4708
aS'/xrs2011065'
p4709
aS'/xrs2011106'
p4710
aS'/xrs2011112'
p4711
aS'/xrs2011112'
p4712
aS'/xrs2011209'
p4713
aS'/xrs2011220'
p4714
aS'/xrs2011221'
p4715
aS'/xrs2011221'
p4716
aS'/xrs2011253'
p4717
aS'/xrs2011256'
p4718
aS'/xrs2011259'
p4719
aS'/xrs2011262'
p4720
aS'/xrs2011263'
p4721
aS'/xrs2011263'
p4722
aS'/xrs2011264'
p4723
aS'/xrs2011268'
p4724
aS'/xrs2011268'
p4725
aS'/xrs2011268'
p4726
aS'/xrs2011268'
p4727
aS'/xrs2011268'
p4728
aS'/xrs2011268'
p4729
aS'/xrs2011268'
p4730
aS'/xrs2011268'
p4731
aS'/xrs2011268'
p4732
aS'/xrs2011268'
p4733
aS'/xrs2011268'
p4734
aS'/xrs2011268'
p4735
aS'/xrs2011272'
p4736
aS'/xrs2011273'
p4737
aS'/xrs2011273'
p4738
aS'/xrs2011290'
p4739
aS'/xrs2011290'
p4740
aS'/xrs2011307'
p4741
aS'/xrs2011310'
p4742
aS'/xrs2011319'
p4743
aS'/xrs2011347'
p4744
aS'/xrs2011359'
p4745
aS'/xrs2011359'
p4746
aS'/xrs2011359'
p4747
aS'/xrs2011360'
p4748
aS'/xrs2011361'
p4749
aS'/xrs2011364'
p4750
aS'/xrs2011364'
p4751
aS'/xrs2012011'
p4752
aS'/xrs2012016'
p4753
aS'/xrs2012073'
p4754
aS'/xrs2012083'
p4755
aS'/xrs2012083'
p4756
aS'/xrs2012083'
p4757
aS'/xrs2012083'
p4758
aS'/xrs2012118'
p4759
aS'/xrs2012128'
p4760
aS'/xrs2012134'
p4761
aS'/xrs2012146'
p4762
aS'/xrs2012177'
p4763
aS'/xrs2012177'
p4764
aS'/xrs2012181'
p4765
aS'/xrs2012181'
p4766
aS'/xrs2012181'
p4767
aS'/xrs2012183'
p4768
aS'/xrs2012183'
p4769
aS'/xrs2012183'
p4770
aS'/xrs2012183'
p4771
aS'/xrs2012190'
p4772
aS'/xrs2012190'
p4773
aS'/xrs2012190'
p4774
aS'/xrs2012190'
p4775
aS'/xrs2012191'
p4776
aS'/xrs2012191'
p4777
aS'/xrs2012192'
p4778
aS'/xrs2012192'
p4779
aS'/xrs2012192'
p4780
aS'/xrs2012192'
p4781
aS'/xrs2012192'
p4782
aS'/xrs2012192'
p4783
aS'/xrs2012192'
p4784
aS'/xrs2012192'
p4785
aS'/xrs2012192'
p4786
aS'/xrs2012192'
p4787
aS'/xrs2012198'
p4788
aS'/xrs2012199'
p4789
aS'/xrs2012199'
p4790
aS'/xrs2012199'
p4791
aS'/xrs2012199'
p4792
aS'/xrs2012199'
p4793
aS'/xrs2012199'
p4794
aS'/xrs2012199'
p4795
aS'/xrs2012201'
p4796
aS'/xrs2012206'
p4797
aS'/xrs2012209'
p4798
aS'/xrs2012210'
p4799
aS'/xrs2012211'
p4800
aS'/xrs2012212'
p4801
aS'/xrs2012212'
p4802
aS'/xrs2012212'
p4803
aS'/xrs2012213'
p4804
aS'/xrs2012222'
p4805
aS'/xrs2012222'
p4806
aS'/xrs2012223'
p4807
aS'/xrs2012223'
p4808
aS'/xrs2012224'
p4809
aS'/xrs2012232'
p4810
aS'/xrs2012245'
p4811
aS'/xrs2012245'
p4812
aS'/xrs2012245'
p4813
aS'/xrs2012250'
p4814
aS'/xrs2012250'
p4815
aS'/xrs2012251'
p4816
aS'/xrs2012256'
p4817
aS'/xrs2012256'
p4818
aS'/xrs2012256'
p4819
aS'/xrs2012256'
p4820
aS'/xrs2012261'
p4821
aS'/xrs2012261'
p4822
aS'/xrs2012274'
p4823
aS'/xrs2012274'
p4824
aS'/xrs2012275'
p4825
aS'/xrs2012281'
p4826
aS'/xrs2012281'
p4827
aS'/xrs2012289'
p4828
aS'/xrs2012291'
p4829
aS'/xrs2012293'
p4830
aS'/xrs2012293'
p4831
aS'/xrs2012294'
p4832
aS'/xrs2012295'
p4833
aS'/xrs2012295'
p4834
aS'/xrs2012295'
p4835
aS'/xrs2012295'
p4836
aS'/xrs2012295'
p4837
aS'/xrs2012296'
p4838
aS'/xrs2012296'
p4839
aS'/xrs2012296'
p4840
aS'/xrs2012296'
p4841
aS'/xrs2012297'
p4842
aS'/xrs2012297'
p4843
aS'/xrs2012312'
p4844
aS'/xrs2012312'
p4845
aS'/xrs2012312'
p4846
aS'/xrs2012312'
p4847
aS'/xrs2012316'
p4848
aS'/xrs2012318'
p4849
aS'/xrs2012320'
p4850
aS'/xrs2012320'
p4851
aS'/xrs2012323'
p4852
aS'/xrs2012325'
p4853
aS'/xrs2012325'
p4854
aS'/xrs2012326'
p4855
aS'/xrs2012326'
p4856
aS'/xrs2012326'
p4857
aS'/xrs2012332'
p4858
aS'/xrs2012332'
p4859
aS'/xrs2012333'
p4860
aS'/xrs2012333'
p4861
aS'/xrs2012334'
p4862
aS'/xrs2013009'
p4863
aS'/xrs2013074'
p4864
aS'/xrs2013074'
p4865
aS'/xrs2013077'
p4866
aS'/xrs2013077'
p4867
aS'/xrs2013079'
p4868
aS'/xrs2013079'
p4869
aS'/xrs2013101'
p4870
aS'/xrs2013101'
p4871
aS'/xrs2013101'
p4872
aS'/xrs2013102'
p4873
aS'/xrs2013108'
p4874
aS'/xrs2013112'
p4875
aS'/xrs2013113'
p4876
aS'/xrs2013115'
p4877
aS'/xrs2013115'
p4878
aS'/xrs2013116'
p4879
aS'/xrs2013116'
p4880
aS'/xrs2013117'
p4881
aS'/xrs2013117'
p4882
aS'/xrs2013117'
p4883
aS'/xrs2013119'
p4884
aS'/xrs2013119'
p4885
aS'/xrs2013120'
p4886
aS'/xrs2013121'
p4887
aS'/xrs2013121'
p4888
aS'/xrs2013123'
p4889
aS'/xrs2013124'
p4890
aS'/xrs2013129'
p4891
aS'/xrs2013136'
p4892
aS'/xrs2013138'
p4893
aS'/xrs2013138'
p4894
aS'/xrs2013138'
p4895
aS'/xrs2013139'
p4896
aS'/xrs2013139'
p4897
aS'/xrs2013139'
p4898
aS'/xrs2013142'
p4899
aS'/xrs2013143'
p4900
aS'/xrs2013151'
p4901
aS'/xrs2013154'
p4902
aS'/xrs2013154'
p4903
aS'/xrs2013170'
p4904
aS'/xrs2013170'
p4905
aS'/xrs2013179'
p4906
aS'/xrs2013184'
p4907
assS'ID'
p4908
(lp4909
I7053005
aI7060208
aI7060304
aI7071024
aI10020621
aI10020855
aI10110321
aI10110640
aI11021464
aI11021439
aI11021465
aI11021908
aI11021975
aI11021935
aI11021937
aI11022407
aI11030656
aI11041649
aI11042276
aI11042235
aI11072842
aI11080832
aI11080927
aI11080927
aI11091009
aI11091327
aI11091670
aI11091951
aI11092032
aI11092066
aI110921100
aI11092515
aI11092517
aI11092520
aI11092520
aI11092520
aI11092521
aI11092524
aI11092524
aI11092562
aI11092562
aI11092549
aI11092537
aI11092930
aI11093009
aI11093035
aI11101717
aI11101717
aI11110332
aI11110640
aI11111536
aI11121368
aI11122512
aI11122524
aI11122525
aI11122643
aI11122744
aI11123058
aI11123041
aI12011110
aI12011632
aI12031302
aI12032316
aI12032335
aI12032319
aI12032321
aI12042719
aI120507104
aI12051307
aI12052537
aI12062521
aI12062512
aI12062905
aI12062966
aI12062922
aI12070139
aI12070141
aI12070143
aI12070152
aI12070832
aI12070834
aI12070851
aI12070855
aI12070965
aI12070993
aI12071011
aI12071011
aI12071013
aI12071023
aI12071023
aI12071027
aI12071027
aI12071065
aI12071031
aI12071068
aI12071673
aI12071768
aI12071728
aI12071728
aI12071728
aI12071771
aI12071771
aI12071771
aI12071911
aI12072411
aI12072748
aI12072831
aI12072918
aI12073020
aI12073018
aI12073022
aI12073140
aI12080932
aI12080935
aI12081011
aI12081051
aI12081106
aI12081918
aI12090162
aI12090163
aI12090164
aI12090625
aI12090638
aI12090720
aI12091251
aI12091224
aI12091225
aI12091227
aI12091702
aI12091706
aI12093033
aI12093033
aI12100165
aI12100707
aI12100708
aI12101508
aI12101714
aI12101924
aI12101925
aI12102024
aI12102105
aI12102106
aI12102107
aI12102125
aI12102126
aI12102229
aI12102230
aI12102234
aI12102240
aI12102309
aI12102310
aI12110705
aI12110706
aI12110717
aI12110718
aI12111105
aI12111320
aI12111515
aI12111516
aI12111806
aI12112036
aI12112037
aI12112122
aI12112123
aI12112144
aI12112773
aI12112783
aI12112839
aI12112864
aI12112927
aI13010922
aI13031505
aI13031507
aI13031810
aI13031811
aI13032002
aI13032034
aI13041107
aI13041107
aI13041112
aI13041256
aI13041825
aI13042246
aI13042352
aI13042586
aI13042586
aI13042624
aI13042624
aI13042736
aI13042740
aI13042748
aI13042928
aI13042965
aI13043023
aI13050122
aI13050122
aI13050351
aI13050406
aI13050933
aI13051642
aI13051830
aI13051830
aI13051831
aI13051943
aI13051948
aI13051948
aI13052208
aI13052343
aI13053114
aI13060316
aI13060317
aI13061914
aI13061915
aI13062808
aI13070301
asb.