ccopy_reg
_reconstructor
p0
(cdata_management
Data_Study
p1
c__builtin__
object
p2
Ntp3
Rp4
(dp5
S'Angle'
p6
(lp7
F62.50337424849359
aF60.64699146509474
aF60.075911481949895
aF52.59610651071607
aF38.286310615814315
aF42.95263410531598
aF102.01550077442414
aF96.70174490548968
aF153.9005900649947
aF153.9005900649947
aF153.9005900649947
aF161.01853990805157
aF161.01853990805157
aF161.01853990805157
aF161.01853990805157
aF167.76182647093714
aF152.3561477913242
aF11.379861548452656
aF20.29385855189691
aF20.29385855189691
aF59.45254482541985
aF40.291304405955984
aF38.40353112625646
aF38.40353112625646
aF83.30894734802933
aF98.4578740143128
aF112.62998064317969
aF125.42397790297399
aF129.34652579272324
aF129.34652579272324
aF133.09231543854816
aF146.2802277132379
aF146.2802277132379
aF146.2802277132379
aF146.2802277132379
aF146.2802277132379
aF146.2802277132379
aF146.2802277132379
aF146.2802277132379
aF146.2802277132379
aF146.2802277132379
aF146.2802277132379
aF146.2802277132379
aF156.4448786626775
aF158.4469361775717
aF158.4469361775717
aF152.85179009281606
aF152.85179009281606
aF123.89647280952632
aF117.76569522833788
aF95.64693941552773
aF35.60378037571247
aF79.49207407488659
aF79.49207407488659
aF79.49207407488659
aF82.37631825797726
aF85.15875687812772
aF92.95245701238207
aF92.95245701238207
aF118.34010108667877
aF127.39546314524638
aF38.04676804659359
aF10.0942439680485
aF10.0942439680485
aF10.0942439680485
aF10.0942439680485
aF66.36426818825515
aF88.38437998898156
aF105.82127796723009
aF154.9642817738605
aF80.23108162549362
aF80.23108162549362
aF71.90047885531068
aF71.90047885531068
aF71.90047885531068
aF68.05027143791428
aF68.05027143791428
aF68.05027143791428
aF68.05027143791428
aF55.66818403106506
aF55.66818403106506
aF55.66818403106506
aF55.66818403106506
aF53.99086605994832
aF53.99086605994832
aF52.32677908440818
aF52.32677908440818
aF52.32677908440818
aF52.32677908440818
aF52.32677908440818
aF52.32677908440818
aF52.32677908440818
aF52.32677908440818
aF52.32677908440818
aF52.32677908440818
aF42.45972199710355
aF40.80992347996491
aF40.80992347996491
aF40.80992347996491
aF40.80992347996491
aF40.80992347996491
aF40.80992347996491
aF40.80992347996491
aF37.48439536699969
aF28.94676661957799
aF23.681966426611336
aF21.930481161876354
aF20.203045509801868
aF18.524467851516754
aF18.524467851516754
aF18.524467851516754
aF16.9325127945844
aF19.18838425169976
aF19.18838425169976
aF21.819017489797485
aF21.819017489797485
aF24.757530031935147
aF56.38567394011217
aF121.3220735922699
aF121.3220735922699
aF121.3220735922699
aF142.09079158014927
aF145.65442623781772
aF145.65442623781772
aF159.79363818421476
aF159.79363818421476
aF159.79363818421476
aF159.79363818421476
aF164.83243352085486
aF164.83243352085486
aF146.97651938948587
aF146.97651938948587
aF145.29831188685878
aF135.24565344407284
aF135.24565344407284
aF121.41787896813779
aF117.75073854968068
aF113.9489737065834
aF113.9489737065834
aF111.98855587954215
aF109.98330036631879
aF109.98330036631879
aF109.98330036631879
aF109.98330036631879
aF109.98330036631879
aF107.92913322465725
aF107.92913322465725
aF107.92913322465725
aF107.92913322465725
aF105.82179312403015
aF105.82179312403015
aF64.38094422743526
aF64.38094422743526
aF64.38094422743526
aF64.38094422743526
aF48.959665673377614
aF40.54820158671774
aF31.90821966603274
aF31.90821966603274
aF19.952390287277176
aF15.602397827143479
aF15.602397827143479
aF15.85460624580503
aF15.85460624580503
aF15.85460624580503
aF38.19959600808889
aF38.19959600808889
aF42.737878916460645
aF42.737878916460645
aF47.219493619538866
aF150.9109757213598
aF26.29223509149599
aF26.29223509149599
aF32.510822943677375
aF32.510822943677375
aF36.45510625218825
aF36.45510625218825
aF74.92435194370731
aF74.92435194370731
aF74.92435194370731
aF76.75493731384292
aF88.60814658275655
aF97.67517740069898
aF100.13522131717086
aF105.3284200974903
aF105.3284200974903
aF108.07402311952916
aF108.07402311952916
aF110.92741442420214
aF110.92741442420214
aF110.92741442420214
aF116.98278553811858
aF116.98278553811858
aF120.19689497343377
aF123.54267298632965
aF123.54267298632965
aF130.6464919532927
aF134.4096938298507
aF155.14753966639196
aF164.88542728517325
aF155.60540840206917
aF155.60540840206917
aF155.60540840206917
aF150.71340684814493
aF150.71340684814493
aF150.71340684814493
aF136.14170407956763
aF131.45239019683495
aF99.02697171844653
aF89.27664341231487
aF89.27664341231487
aF52.140810892209736
aF52.140810892209736
aF36.85822666874547
aF30.476100448319112
asS'Notes'
p8
(lp9
F18.6913
aF5.97018
aF8.43392
aF4.24494
aF8.87206
aF9.95846
aF8.13167
aF6.83105
aF8.90658
aF8.90658
aF8.90658
aF8.62742
aF25.4983
aF25.4983
aF25.4983
aF9.51025
aF5.39995
aF8.57491
aF14.2374
aF9.95019
aF6.30507
aF18.4356
aF95.82
aF24.9692
aF8.17663
aF2.53446
aF7.68835
aF3.17781
aF14.6825
aF14.6825
aF7.83183
aF12.8669
aF2.48726
aF2.48726
aF8.95711
aF3.99087
aF3.99087
aF11.3834
aF7.42722
aF11.3834
aF7.42722
aF7.42722
aF9.12688
aF1.83743
aF1.94397
aF3.56943
aF2.24689
aF5.952
aF12.5439
aF12.5946
aF12.4206
aF4.21066
aF2.91645
aF12.3981
aF3.4147
aF25.9635
aF4.76542
aF2.21755
aF2.21755
aF1.46496
aF4.3274
aF3.49879
aF6.92411
aF6.92411
aF10.8838
aF10.8838
aF2.19414
aF9.60897
aF3.81187
aF27.6501
aF3.87278
aF3.87278
aF3.86651
aF3.10238
aF2.8837
aF3.63917
aF3.63917
aF3.63917
aF11.478
aF12.3607
aF12.3607
aF1.81117
aF1.81117
aF5.16772
aF5.16772
aF3.62222
aF22.6846
aF19.9313
aF3.64308
aF2.82747
aF2.82747
aF5.88834
aF5.88834
aF2.22169
aF2.22169
aF5.82795
aF1.31277
aF1.31277
aF2.55844
aF3.51377
aF1.31277
aF2.55844
aF3.51377
aF4.50516
aF3.04287
aF10.5523
aF11.6046
aF8.79299
aF2.83948
aF2.83948
aF2.83948
aF3.52851
aF2.16674
aF2.16674
aF2.53852
aF2.53852
aF3.15194
aF12.1057
aF3.52592
aF3.52592
aF3.52592
aF5.64802
aFnan
aF6.18516
aF10.4556
aF15.9059
aF15.9059
aF15.9059
aF2.35342
aF1.29927
aF16.1536
aF11.6589
aF8.03856
aF9.57677
aF9.57677
aF5.10624
aF12.2259
aF3.89471
aF3.89471
aF7.89829
aF9.65879
aF9.65879
aF7.83661
aF16.7961
aF16.7961
aF6.08708
aF6.08708
aF38.0098
aF38.0098
aF18.8112
aF18.8112
aF1.88837
aF1.88837
aF3.91564
aF3.91564
aF6.33381
aF38.4143
aF4.8025
aF4.8025
aF3.70722
aF17.9387
aF17.9387
aF29.4637
aF29.4637
aF29.4399
aF11.9378
aF8.40131
aF9.82747
aF29.6629
aF8.61382
aF6.39139
aF4.76499
aF4.76499
aF1.60282
aF1.60282
aF5.61763
aF3.31562
aF29.213
aF26.6471
aF5.74149
aF2.39147
aF4.88198
aF16.5222
aF14.6633
aF2.58154
aF6.79732
aF5.97587
aF3.90001
aF5.68579
aF12.0998
aF4.04059
aF5.44164
aF5.71885
aF5.53718
aF3.89928
aF2.58709
aF4.03122
aF3.495
aF1.2199
aF2.26743
aF21.0603
aF9.1332
aF9.1332
aF6.81187
aF6.81187
aF9.62835
aF1.95126
aF7.27256
aF3.9632
aF10.5853
aF10.5853
aF5.10454
aF5.10454
aF2.45468
aF1.35117
asS'Datetimes'
p10
(dp11
S'Obs_start_time'
p12
(lp13
S'30-May-2007 13:53:55.000'
p14
aS'02-Jun-2007 10:33:47.000'
p15
aS'03-Jun-2007 06:43:45.000'
p16
aS'10-Jul-2007 12:38:38.000'
p17
aS'06-Feb-2010 15:37:19.000'
p18
aS'08-Feb-2010 13:48:43.000'
p19
aS'03-Nov-2010 12:19:04.000'
p20
aS'06-Nov-2010 15:39:14.000'
p21
aS'14-Feb-2011 15:52:50.000'
p22
aS'14-Feb-2011 15:52:50.000'
p23
aS'14-Feb-2011 15:52:50.000'
p24
aS'19-Feb-2011 03:00:36.000'
p25
aS'19-Feb-2011 12:00:36.000'
p26
aS'19-Feb-2011 12:00:36.000'
p27
aS'19-Feb-2011 12:00:36.000'
p28
aS'24-Feb-2011 07:38:24.000'
p29
aS'06-Mar-2011 18:16:33.000'
p30
aS'16-Apr-2011 14:04:28.000'
p31
aS'22-Apr-2011 04:52:53.000'
p32
aS'22-Apr-2011 11:23:23.000'
p33
aS'28-Jul-2011 12:09:21.000'
p34
aS'08-Aug-2011 18:08:25.000'
p35
aS'09-Aug-2011 08:06:23.000'
p36
aS'09-Aug-2011 08:11:23.000'
p37
aS'10-Sep-2011 07:27:49.000'
p38
aS'13-Sep-2011 17:55:52.000'
p39
aS'16-Sep-2011 11:35:08.000'
p40
aS'19-Sep-2011 04:31:06.000'
p41
aS'20-Sep-2011 12:36:26.000'
p42
aS'20-Sep-2011 12:36:26.000'
p43
aS'21-Sep-2011 12:20:44.000'
p44
aS'25-Sep-2011 07:05:03.000'
p45
aS'25-Sep-2011 08:40:03.000'
p46
aS'25-Sep-2011 08:40:03.000'
p47
aS'25-Sep-2011 09:40:03.000'
p48
aS'25-Sep-2011 10:30:03.000'
p49
aS'25-Sep-2011 10:30:03.000'
p50
aS'25-Sep-2011 15:12:38.000'
p51
aS'25-Sep-2011 16:17:38.000'
p52
aS'25-Sep-2011 15:12:38.000'
p53
aS'25-Sep-2011 16:17:38.000'
p54
aS'25-Sep-2011 16:17:38.000'
p55
aS'25-Sep-2011 22:22:38.000'
p56
aS'29-Sep-2011 12:10:13.000'
p57
aS'30-Sep-2011 03:12:25.000'
p58
aS'30-Sep-2011 22:49:08.000'
p59
aS'17-Oct-2011 13:23:06.000'
p60
aS'17-Oct-2011 14:21:26.000'
p61
aS'03-Nov-2011 11:09:26.000'
p62
aS'06-Nov-2011 01:09:18.000'
p63
aS'15-Nov-2011 12:45:30.000'
p64
aS'13-Dec-2011 23:38:37.000'
p65
aS'25-Dec-2011 11:26:21.000'
p66
aS'25-Dec-2011 18:15:57.000'
p67
aS'25-Dec-2011 20:30:57.000'
p68
aS'26-Dec-2011 20:20:24.000'
p69
aS'27-Dec-2011 19:29:34.000'
p70
aS'30-Dec-2011 20:22:34.000'
p71
aS'30-Dec-2011 20:22:34.000'
p72
aS'11-Jan-2012 04:46:36.000'
p73
aS'16-Jan-2012 10:26:25.000'
p74
aS'13-Mar-2012 00:37:48.000'
p75
aS'23-Mar-2012 16:38:48.000'
p76
aS'23-Mar-2012 16:38:48.000'
p77
aS'23-Mar-2012 19:38:48.000'
p78
aS'23-Mar-2012 19:38:48.000'
p79
aS'27-Apr-2012 08:21:54.000'
p80
aS'07-May-2012 14:22:26.000'
p81
aS'13-May-2012 04:07:38.000'
p82
aS'25-May-2012 22:34:37.000'
p83
aS'25-Jun-2012 18:26:16.000'
p84
aS'25-Jun-2012 18:26:16.000'
p85
aS'29-Jun-2012 01:21:38.000'
p86
aS'29-Jun-2012 04:14:08.000'
p87
aS'29-Jun-2012 06:46:13.000'
p88
aS'01-Jul-2012 15:49:18.000'
p89
aS'01-Jul-2012 15:49:18.000'
p90
aS'01-Jul-2012 15:49:18.000'
p91
aS'01-Jul-2012 19:14:43.000'
p92
aS'08-Jul-2012 13:04:52.000'
p93
aS'08-Jul-2012 13:04:52.000'
p94
aS'08-Jul-2012 17:35:12.000'
p95
aS'08-Jul-2012 17:35:12.000'
p96
aS'09-Jul-2012 23:09:16.000'
p97
aS'09-Jul-2012 23:09:16.000'
p98
aS'10-Jul-2012 04:40:36.000'
p99
aS'10-Jul-2012 05:07:16.000'
p100
aS'10-Jul-2012 06:23:56.000'
p101
aS'10-Jul-2012 12:23:56.000'
p102
aS'10-Jul-2012 12:43:56.000'
p103
aS'10-Jul-2012 12:43:56.000'
p104
aS'10-Jul-2012 13:43:56.000'
p105
aS'10-Jul-2012 13:43:56.000'
p106
aS'10-Jul-2012 15:47:16.000'
p107
aS'10-Jul-2012 15:47:16.000'
p108
aS'16-Jul-2012 19:50:51.000'
p109
aS'17-Jul-2012 15:29:31.000'
p110
aS'17-Jul-2012 15:29:31.000'
p111
aS'17-Jul-2012 15:58:11.000'
p112
aS'17-Jul-2012 16:48:11.000'
p113
aS'17-Jul-2012 15:29:31.000'
p114
aS'17-Jul-2012 15:58:11.000'
p115
aS'17-Jul-2012 16:48:11.000'
p116
aS'19-Jul-2012 05:21:33.000'
p117
aS'24-Jul-2012 19:04:59.000'
p118
aS'27-Jul-2012 17:25:45.000'
p119
aS'28-Jul-2012 20:52:27.000'
p120
aS'29-Jul-2012 06:23:03.000'
p121
aS'30-Jul-2012 06:09:45.000'
p122
aS'30-Jul-2012 06:09:45.000'
p123
aS'30-Jul-2012 06:09:45.000'
p124
aS'31-Jul-2012 14:23:07.000'
p125
aS'09-Aug-2012 11:44:52.000'
p126
aS'09-Aug-2012 11:44:52.000'
p127
aS'10-Aug-2012 04:14:55.000'
p128
aS'10-Aug-2012 04:14:55.000'
p129
aS'11-Aug-2012 12:18:58.000'
p130
aS'19-Aug-2012 04:41:17.000'
p131
aS'01-Sep-2012 18:28:37.000'
p132
aS'01-Sep-2012 18:28:37.000'
p133
aS'01-Sep-2012 18:28:37.000'
p134
aS'06-Sep-2012 15:23:45.000'
p135
aS'07-Sep-2012 17:32:11.000'
p136
aS'07-Sep-2012 17:40:22.000'
p137
aS'12-Sep-2012 06:14:58.000'
p138
aS'12-Sep-2012 11:20:56.000'
p139
aS'12-Sep-2012 11:20:56.000'
p140
aS'12-Sep-2012 11:20:56.000'
p141
aS'17-Sep-2012 06:19:16.000'
p142
aS'17-Sep-2012 13:55:56.000'
p143
aS'30-Sep-2012 11:40:26.000'
p144
aS'30-Sep-2012 12:10:26.000'
p145
aS'01-Oct-2012 20:47:45.000'
p146
aS'07-Oct-2012 20:27:42.000'
p147
aS'07-Oct-2012 20:27:42.000'
p148
aS'15-Oct-2012 04:21:45.000'
p149
aS'17-Oct-2012 08:05:47.000'
p150
aS'19-Oct-2012 20:52:30.000'
p151
aS'19-Oct-2012 20:52:30.000'
p152
aS'20-Oct-2012 18:11:23.000'
p153
aS'21-Oct-2012 03:06:17.000'
p154
aS'21-Oct-2012 03:06:17.000'
p155
aS'21-Oct-2012 05:32:57.000'
p156
aS'21-Oct-2012 20:02:57.000'
p157
aS'21-Oct-2012 20:02:57.000'
p158
aS'22-Oct-2012 16:06:19.000'
p159
aS'22-Oct-2012 16:06:19.000'
p160
aS'22-Oct-2012 18:49:39.000'
p161
aS'22-Oct-2012 18:49:39.000'
p162
aS'23-Oct-2012 03:29:49.000'
p163
aS'23-Oct-2012 03:29:49.000'
p164
aS'07-Nov-2012 07:52:28.000'
p165
aS'07-Nov-2012 07:52:28.000'
p166
aS'07-Nov-2012 13:03:08.000'
p167
aS'07-Nov-2012 13:03:08.000'
p168
aS'11-Nov-2012 02:30:39.000'
p169
aS'13-Nov-2012 05:49:40.000'
p170
aS'15-Nov-2012 04:35:26.000'
p171
aS'15-Nov-2012 04:35:26.000'
p172
aS'18-Nov-2012 04:09:31.000'
p173
aS'20-Nov-2012 12:40:52.000'
p174
aS'20-Nov-2012 12:40:52.000'
p175
aS'21-Nov-2012 06:54:12.000'
p176
aS'21-Nov-2012 06:54:12.000'
p177
aS'21-Nov-2012 15:26:51.000'
p178
aS'27-Nov-2012 21:26:24.000'
p179
aS'27-Nov-2012 23:23:04.000'
p180
aS'28-Nov-2012 12:23:02.000'
p181
aS'28-Nov-2012 21:36:22.000'
p182
aS'29-Nov-2012 07:09:40.000'
p183
aS'09-Jan-2013 14:39:51.000'
p184
aS'15-Mar-2013 06:38:53.000'
p185
aS'15-Mar-2013 06:38:53.000'
p186
aS'18-Mar-2013 03:19:26.000'
p187
aS'18-Mar-2013 03:19:26.000'
p188
aS'20-Mar-2013 01:00:02.000'
p189
aS'20-Mar-2013 19:13:22.000'
p190
aS'11-Apr-2013 07:13:56.000'
p191
aS'11-Apr-2013 07:17:16.000'
p192
aS'11-Apr-2013 10:43:56.000'
p193
aS'12-Apr-2013 19:20:37.000'
p194
aS'18-Apr-2013 18:18:48.000'
p195
aS'22-Apr-2013 10:30:17.000'
p196
aS'23-Apr-2013 14:13:39.000'
p197
aS'25-Apr-2013 21:34:35.000'
p198
aS'25-Apr-2013 22:01:15.000'
p199
aS'26-Apr-2013 06:27:58.000'
p200
aS'26-Apr-2013 06:57:58.000'
p201
aS'27-Apr-2013 10:51:20.000'
p202
aS'27-Apr-2013 12:11:20.000'
p203
aS'27-Apr-2013 15:11:20.000'
p204
aS'29-Apr-2013 09:15:26.000'
p205
aS'29-Apr-2013 19:42:06.000'
p206
aS'30-Apr-2013 08:59:29.000'
p207
aS'01-May-2013 05:56:12.000'
p208
aS'01-May-2013 06:16:12.000'
p209
aS'03-May-2013 16:56:58.000'
p210
aS'04-May-2013 04:03:40.000'
p211
aS'09-May-2013 16:37:52.000'
p212
aS'16-May-2013 22:15:27.000'
p213
aS'18-May-2013 20:10:07.000'
p214
aS'18-May-2013 21:00:07.000'
p215
aS'18-May-2013 21:00:07.000'
p216
aS'19-May-2013 17:23:26.000'
p217
aS'19-May-2013 17:23:26.000'
p218
aS'19-May-2013 17:46:46.000'
p219
aS'22-May-2013 00:54:02.000'
p220
aS'23-May-2013 14:51:20.000'
p221
aS'31-May-2013 20:01:00.000'
p222
aS'03-Jun-2013 07:21:31.000'
p223
aS'03-Jun-2013 07:21:31.000'
p224
aS'19-Jun-2013 09:48:15.000'
p225
aS'19-Jun-2013 09:48:15.000'
p226
aS'28-Jun-2013 03:38:48.000'
p227
aS'04-Jul-2013 00:04:09.000'
p228
asS'Obs_end_time'
p229
(lp230
S'30-May-2007 13:54:11.000'
p231
aS'02-Jun-2007 10:34:03.000'
p232
aS'03-Jun-2007 06:44:01.000'
p233
aS'10-Jul-2007 12:38:54.000'
p234
aS'06-Feb-2010 15:37:35.000'
p235
aS'08-Feb-2010 13:48:59.000'
p236
aS'03-Nov-2010 12:19:20.000'
p237
aS'06-Nov-2010 15:39:30.000'
p238
aS'14-Feb-2011 15:53:06.000'
p239
aS'14-Feb-2011 15:53:06.000'
p240
aS'14-Feb-2011 15:53:06.000'
p241
aS'19-Feb-2011 03:00:52.000'
p242
aS'19-Feb-2011 12:00:52.000'
p243
aS'19-Feb-2011 12:00:52.000'
p244
aS'19-Feb-2011 12:00:52.000'
p245
aS'24-Feb-2011 07:38:40.000'
p246
aS'06-Mar-2011 18:16:49.000'
p247
aS'16-Apr-2011 14:04:44.000'
p248
aS'22-Apr-2011 04:53:09.000'
p249
aS'22-Apr-2011 11:23:39.000'
p250
aS'28-Jul-2011 12:09:37.000'
p251
aS'08-Aug-2011 18:08:41.000'
p252
aS'09-Aug-2011 08:06:39.000'
p253
aS'09-Aug-2011 08:11:39.000'
p254
aS'10-Sep-2011 07:28:05.000'
p255
aS'13-Sep-2011 17:56:08.000'
p256
aS'16-Sep-2011 11:35:24.000'
p257
aS'19-Sep-2011 04:31:22.000'
p258
aS'20-Sep-2011 12:36:42.000'
p259
aS'20-Sep-2011 12:36:42.000'
p260
aS'21-Sep-2011 12:21:00.000'
p261
aS'25-Sep-2011 07:05:19.000'
p262
aS'25-Sep-2011 08:40:19.000'
p263
aS'25-Sep-2011 08:40:19.000'
p264
aS'25-Sep-2011 09:40:19.000'
p265
aS'25-Sep-2011 10:30:19.000'
p266
aS'25-Sep-2011 10:30:19.000'
p267
aS'25-Sep-2011 15:12:54.000'
p268
aS'25-Sep-2011 16:17:54.000'
p269
aS'25-Sep-2011 15:12:54.000'
p270
aS'25-Sep-2011 16:17:54.000'
p271
aS'25-Sep-2011 16:17:54.000'
p272
aS'25-Sep-2011 22:22:54.000'
p273
aS'29-Sep-2011 12:10:29.000'
p274
aS'30-Sep-2011 03:12:41.000'
p275
aS'30-Sep-2011 22:49:24.000'
p276
aS'17-Oct-2011 13:23:22.000'
p277
aS'17-Oct-2011 14:21:42.000'
p278
aS'03-Nov-2011 11:09:42.000'
p279
aS'06-Nov-2011 01:09:34.000'
p280
aS'15-Nov-2011 12:45:46.000'
p281
aS'13-Dec-2011 23:38:53.000'
p282
aS'25-Dec-2011 11:26:37.000'
p283
aS'25-Dec-2011 18:16:13.000'
p284
aS'25-Dec-2011 20:31:13.000'
p285
aS'26-Dec-2011 20:20:40.000'
p286
aS'27-Dec-2011 19:29:50.000'
p287
aS'30-Dec-2011 20:22:50.000'
p288
aS'30-Dec-2011 20:22:50.000'
p289
aS'11-Jan-2012 04:46:52.000'
p290
aS'16-Jan-2012 10:26:41.000'
p291
aS'13-Mar-2012 00:38:04.000'
p292
aS'23-Mar-2012 16:39:04.000'
p293
aS'23-Mar-2012 16:39:04.000'
p294
aS'23-Mar-2012 19:39:04.000'
p295
aS'23-Mar-2012 19:39:04.000'
p296
aS'27-Apr-2012 08:22:10.000'
p297
aS'07-May-2012 14:22:42.000'
p298
aS'13-May-2012 04:07:54.000'
p299
aS'25-May-2012 22:34:53.000'
p300
aS'25-Jun-2012 18:26:32.000'
p301
aS'25-Jun-2012 18:26:32.000'
p302
aS'29-Jun-2012 01:21:54.000'
p303
aS'29-Jun-2012 04:14:24.000'
p304
aS'29-Jun-2012 06:46:29.000'
p305
aS'01-Jul-2012 15:49:34.000'
p306
aS'01-Jul-2012 15:49:34.000'
p307
aS'01-Jul-2012 15:49:34.000'
p308
aS'01-Jul-2012 19:14:59.000'
p309
aS'08-Jul-2012 13:05:08.000'
p310
aS'08-Jul-2012 13:05:08.000'
p311
aS'08-Jul-2012 17:35:28.000'
p312
aS'08-Jul-2012 17:35:28.000'
p313
aS'09-Jul-2012 23:09:32.000'
p314
aS'09-Jul-2012 23:09:32.000'
p315
aS'10-Jul-2012 04:40:52.000'
p316
aS'10-Jul-2012 05:07:32.000'
p317
aS'10-Jul-2012 06:24:12.000'
p318
aS'10-Jul-2012 12:24:12.000'
p319
aS'10-Jul-2012 12:44:12.000'
p320
aS'10-Jul-2012 12:44:12.000'
p321
aS'10-Jul-2012 13:44:12.000'
p322
aS'10-Jul-2012 13:44:12.000'
p323
aS'10-Jul-2012 15:47:32.000'
p324
aS'10-Jul-2012 15:47:32.000'
p325
aS'16-Jul-2012 19:51:07.000'
p326
aS'17-Jul-2012 15:29:47.000'
p327
aS'17-Jul-2012 15:29:47.000'
p328
aS'17-Jul-2012 15:58:27.000'
p329
aS'17-Jul-2012 16:48:27.000'
p330
aS'17-Jul-2012 15:29:47.000'
p331
aS'17-Jul-2012 15:58:27.000'
p332
aS'17-Jul-2012 16:48:27.000'
p333
aS'19-Jul-2012 05:21:49.000'
p334
aS'24-Jul-2012 19:05:15.000'
p335
aS'27-Jul-2012 17:26:01.000'
p336
aS'28-Jul-2012 20:52:43.000'
p337
aS'29-Jul-2012 06:23:19.000'
p338
aS'30-Jul-2012 06:10:01.000'
p339
aS'30-Jul-2012 06:10:01.000'
p340
aS'30-Jul-2012 06:10:01.000'
p341
aS'31-Jul-2012 14:23:23.000'
p342
aS'09-Aug-2012 11:45:08.000'
p343
aS'09-Aug-2012 11:45:08.000'
p344
aS'10-Aug-2012 04:15:11.000'
p345
aS'10-Aug-2012 04:15:11.000'
p346
aS'11-Aug-2012 12:19:14.000'
p347
aS'19-Aug-2012 04:41:33.000'
p348
aS'01-Sep-2012 18:28:53.000'
p349
aS'01-Sep-2012 18:28:53.000'
p350
aS'01-Sep-2012 18:28:53.000'
p351
aS'06-Sep-2012 15:24:01.000'
p352
aS'07-Sep-2012 17:32:11.000'
p353
aS'07-Sep-2012 17:40:38.000'
p354
aS'12-Sep-2012 06:15:14.000'
p355
aS'12-Sep-2012 11:21:12.000'
p356
aS'12-Sep-2012 11:21:12.000'
p357
aS'12-Sep-2012 11:21:12.000'
p358
aS'17-Sep-2012 06:19:32.000'
p359
aS'17-Sep-2012 13:56:12.000'
p360
aS'30-Sep-2012 11:40:42.000'
p361
aS'30-Sep-2012 12:10:42.000'
p362
aS'01-Oct-2012 20:48:01.000'
p363
aS'07-Oct-2012 20:27:58.000'
p364
aS'07-Oct-2012 20:27:58.000'
p365
aS'15-Oct-2012 04:22:01.000'
p366
aS'17-Oct-2012 08:06:03.000'
p367
aS'19-Oct-2012 20:52:46.000'
p368
aS'19-Oct-2012 20:52:46.000'
p369
aS'20-Oct-2012 18:11:39.000'
p370
aS'21-Oct-2012 03:06:33.000'
p371
aS'21-Oct-2012 03:06:33.000'
p372
aS'21-Oct-2012 05:33:13.000'
p373
aS'21-Oct-2012 20:03:13.000'
p374
aS'21-Oct-2012 20:03:13.000'
p375
aS'22-Oct-2012 16:06:35.000'
p376
aS'22-Oct-2012 16:06:35.000'
p377
aS'22-Oct-2012 18:49:55.000'
p378
aS'22-Oct-2012 18:49:55.000'
p379
aS'23-Oct-2012 03:30:05.000'
p380
aS'23-Oct-2012 03:30:05.000'
p381
aS'07-Nov-2012 07:52:44.000'
p382
aS'07-Nov-2012 07:52:44.000'
p383
aS'07-Nov-2012 13:03:24.000'
p384
aS'07-Nov-2012 13:03:24.000'
p385
aS'11-Nov-2012 02:30:55.000'
p386
aS'13-Nov-2012 05:49:56.000'
p387
aS'15-Nov-2012 04:35:42.000'
p388
aS'15-Nov-2012 04:35:42.000'
p389
aS'18-Nov-2012 04:09:47.000'
p390
aS'20-Nov-2012 12:41:08.000'
p391
aS'20-Nov-2012 12:41:08.000'
p392
aS'21-Nov-2012 06:54:28.000'
p393
aS'21-Nov-2012 06:54:28.000'
p394
aS'21-Nov-2012 15:27:07.000'
p395
aS'27-Nov-2012 21:26:40.000'
p396
aS'27-Nov-2012 23:23:20.000'
p397
aS'28-Nov-2012 12:23:18.000'
p398
aS'28-Nov-2012 21:36:38.000'
p399
aS'29-Nov-2012 07:09:56.000'
p400
aS'09-Jan-2013 14:40:07.000'
p401
aS'15-Mar-2013 06:39:09.000'
p402
aS'15-Mar-2013 06:39:09.000'
p403
aS'18-Mar-2013 03:19:42.000'
p404
aS'18-Mar-2013 03:19:42.000'
p405
aS'20-Mar-2013 01:00:18.000'
p406
aS'20-Mar-2013 19:13:38.000'
p407
aS'11-Apr-2013 07:14:12.000'
p408
aS'11-Apr-2013 07:17:32.000'
p409
aS'11-Apr-2013 10:44:12.000'
p410
aS'12-Apr-2013 19:20:53.000'
p411
aS'18-Apr-2013 18:19:04.000'
p412
aS'22-Apr-2013 10:30:33.000'
p413
aS'23-Apr-2013 14:13:55.000'
p414
aS'25-Apr-2013 21:34:51.000'
p415
aS'25-Apr-2013 22:01:31.000'
p416
aS'26-Apr-2013 06:28:14.000'
p417
aS'26-Apr-2013 06:58:14.000'
p418
aS'27-Apr-2013 10:51:36.000'
p419
aS'27-Apr-2013 12:11:36.000'
p420
aS'27-Apr-2013 15:11:36.000'
p421
aS'29-Apr-2013 09:15:42.000'
p422
aS'29-Apr-2013 19:42:22.000'
p423
aS'30-Apr-2013 08:59:45.000'
p424
aS'01-May-2013 05:56:28.000'
p425
aS'01-May-2013 06:16:28.000'
p426
aS'03-May-2013 16:57:14.000'
p427
aS'04-May-2013 04:03:56.000'
p428
aS'09-May-2013 16:38:08.000'
p429
aS'16-May-2013 22:15:43.000'
p430
aS'18-May-2013 20:10:23.000'
p431
aS'18-May-2013 21:00:23.000'
p432
aS'18-May-2013 21:00:23.000'
p433
aS'19-May-2013 17:23:42.000'
p434
aS'19-May-2013 17:23:42.000'
p435
aS'19-May-2013 17:47:02.000'
p436
aS'22-May-2013 00:54:18.000'
p437
aS'23-May-2013 14:51:36.000'
p438
aS'31-May-2013 20:01:16.000'
p439
aS'03-Jun-2013 07:21:47.000'
p440
aS'03-Jun-2013 07:21:47.000'
p441
aS'19-Jun-2013 09:48:31.000'
p442
aS'19-Jun-2013 09:48:31.000'
p443
aS'28-Jun-2013 03:39:04.000'
p444
aS'04-Jul-2013 00:04:25.000'
p445
asS'Messenger_datetimes'
p446
(lp447
S'30-May-2007 13:59:58.000'
p448
aS'02-Jun-2007 10:33:54.000'
p449
aS'03-Jun-2007 07:04:10.000'
p450
aS'10-Jul-2007 12:39:50.000'
p451
aS'06-Feb-2010 15:35:18.000'
p452
aS'08-Feb-2010 13:55:14.000'
p453
aS'03-Nov-2010 12:17:14.000'
p454
aS'06-Nov-2010 16:25:50.000'
p455
aS'14-Feb-2011 16:04:34.000'
p456
aS'14-Feb-2011 16:27:38.000'
p457
aS'14-Feb-2011 16:30:34.000'
p458
aS'19-Feb-2011 02:09:22.000'
p459
aS'19-Feb-2011 11:35:34.000'
p460
aS'19-Feb-2011 11:48:06.000'
p461
aS'19-Feb-2011 12:24:42.000'
p462
aS'24-Feb-2011 07:32:18.000'
p463
aS'06-Mar-2011 17:58:10.000'
p464
aS'16-Apr-2011 14:06:30.000'
p465
aS'22-Apr-2011 04:47:58.000'
p466
aS'22-Apr-2011 11:24:18.000'
p467
aS'28-Jul-2011 12:09:38.000'
p468
aS'08-Aug-2011 18:27:34.000'
p469
aS'09-Aug-2011 08:04:34.000'
p470
aS'09-Aug-2011 08:04:34.000'
p471
aS'10-Sep-2011 07:26:30.000'
p472
aS'13-Sep-2011 17:54:06.000'
p473
aS'16-Sep-2011 10:37:42.000'
p474
aS'19-Sep-2011 05:26:26.000'
p475
aS'20-Sep-2011 12:38:10.000'
p476
aS'20-Sep-2011 13:01:18.000'
p477
aS'21-Sep-2011 12:33:42.000'
p478
aS'25-Sep-2011 07:29:42.000'
p479
aS'25-Sep-2011 08:19:58.000'
p480
aS'25-Sep-2011 09:31:30.000'
p481
aS'25-Sep-2011 09:31:30.000'
p482
aS'25-Sep-2011 09:31:30.000'
p483
aS'25-Sep-2011 10:41:06.000'
p484
aS'25-Sep-2011 15:32:34.000'
p485
aS'25-Sep-2011 15:32:34.000'
p486
aS'25-Sep-2011 15:40:38.000'
p487
aS'25-Sep-2011 15:40:38.000'
p488
aS'25-Sep-2011 17:03:50.000'
p489
aS'25-Sep-2011 22:31:30.000'
p490
aS'29-Sep-2011 12:46:26.000'
p491
aS'30-Sep-2011 03:58:42.000'
p492
aS'30-Sep-2011 22:07:30.000'
p493
aS'17-Oct-2011 14:06:02.000'
p494
aS'17-Oct-2011 14:06:02.000'
p495
aS'03-Nov-2011 11:14:30.000'
p496
aS'06-Nov-2011 00:49:30.000'
p497
aS'15-Nov-2011 12:42:02.000'
p498
aS'13-Dec-2011 23:56:42.000'
p499
aS'25-Dec-2011 11:24:38.000'
p500
aS'25-Dec-2011 18:18:22.000'
p501
aS'25-Dec-2011 20:27:54.000'
p502
aS'26-Dec-2011 20:18:02.000'
p503
aS'27-Dec-2011 18:35:54.000'
p504
aS'30-Dec-2011 19:46:38.000'
p505
aS'30-Dec-2011 21:08:38.000'
p506
aS'11-Jan-2012 04:52:58.000'
p507
aS'16-Jan-2012 10:36:22.000'
p508
aS'13-Mar-2012 00:35:18.000'
p509
aS'23-Mar-2012 16:38:14.000'
p510
aS'23-Mar-2012 16:44:58.000'
p511
aS'23-Mar-2012 18:51:38.000'
p512
aS'23-Mar-2012 19:47:14.000'
p513
aS'27-Apr-2012 08:22:18.000'
p514
aS'07-May-2012 14:26:30.000'
p515
aS'13-May-2012 04:05:58.000'
p516
aS'25-May-2012 22:09:30.000'
p517
aS'25-Jun-2012 18:33:34.000'
p518
aS'25-Jun-2012 19:02:30.000'
p519
aS'29-Jun-2012 01:24:14.000'
p520
aS'29-Jun-2012 04:14:06.000'
p521
aS'29-Jun-2012 07:02:58.000'
p522
aS'01-Jul-2012 15:19:18.000'
p523
aS'01-Jul-2012 16:07:22.000'
p524
aS'01-Jul-2012 16:41:30.000'
p525
aS'01-Jul-2012 19:18:34.000'
p526
aS'08-Jul-2012 12:09:50.000'
p527
aS'08-Jul-2012 12:57:18.000'
p528
aS'08-Jul-2012 17:32:30.000'
p529
aS'08-Jul-2012 18:31:14.000'
p530
aS'09-Jul-2012 22:09:26.000'
p531
aS'09-Jul-2012 23:34:42.000'
p532
aS'10-Jul-2012 04:39:10.000'
p533
aS'10-Jul-2012 04:39:10.000'
p534
aS'10-Jul-2012 06:24:46.000'
p535
aS'10-Jul-2012 12:24:02.000'
p536
aS'10-Jul-2012 12:24:02.000'
p537
aS'10-Jul-2012 13:31:46.000'
p538
aS'10-Jul-2012 13:31:46.000'
p539
aS'10-Jul-2012 13:43:38.000'
p540
aS'10-Jul-2012 15:30:58.000'
p541
aS'10-Jul-2012 15:44:26.000'
p542
aS'16-Jul-2012 19:44:46.000'
p543
aS'17-Jul-2012 14:44:54.000'
p544
aS'17-Jul-2012 15:56:42.000'
p545
aS'17-Jul-2012 15:56:42.000'
p546
aS'17-Jul-2012 15:56:42.000'
p547
aS'17-Jul-2012 16:12:38.000'
p548
aS'17-Jul-2012 16:12:38.000'
p549
aS'17-Jul-2012 16:12:38.000'
p550
aS'19-Jul-2012 05:29:30.000'
p551
aS'24-Jul-2012 18:58:58.000'
p552
aS'27-Jul-2012 16:51:18.000'
p553
aS'28-Jul-2012 21:03:50.000'
p554
aS'29-Jul-2012 06:37:42.000'
p555
aS'30-Jul-2012 05:30:02.000'
p556
aS'30-Jul-2012 05:46:46.000'
p557
aS'30-Jul-2012 06:30:10.000'
p558
aS'31-Jul-2012 13:37:50.000'
p559
aS'09-Aug-2012 11:02:26.000'
p560
aS'09-Aug-2012 11:44:50.000'
p561
aS'10-Aug-2012 04:13:50.000'
p562
aS'10-Aug-2012 04:21:46.000'
p563
aS'11-Aug-2012 12:15:38.000'
p564
aS'19-Aug-2012 04:34:02.000'
p565
aS'01-Sep-2012 17:36:38.000'
p566
aS'01-Sep-2012 18:58:14.000'
p567
aS'01-Sep-2012 19:19:58.000'
p568
aS'06-Sep-2012 15:20:02.000'
p569
aS'06-Sep-2012 23:42:50.000'
p570
aS'07-Sep-2012 17:09:14.000'
p571
aS'12-Sep-2012 05:45:46.000'
p572
aS'12-Sep-2012 10:21:38.000'
p573
aS'12-Sep-2012 11:26:30.000'
p574
aS'12-Sep-2012 11:41:54.000'
p575
aS'17-Sep-2012 06:19:54.000'
p576
aS'17-Sep-2012 12:58:10.000'
p577
aS'30-Sep-2012 11:25:42.000'
p578
aS'30-Sep-2012 11:25:42.000'
p579
aS'01-Oct-2012 20:47:02.000'
p580
aS'07-Oct-2012 20:25:34.000'
p581
aS'07-Oct-2012 21:02:14.000'
p582
aS'15-Oct-2012 03:31:18.000'
p583
aS'17-Oct-2012 07:56:38.000'
p584
aS'19-Oct-2012 20:15:02.000'
p585
aS'19-Oct-2012 21:47:22.000'
p586
aS'20-Oct-2012 18:13:18.000'
p587
aS'21-Oct-2012 02:46:14.000'
p588
aS'21-Oct-2012 03:32:02.000'
p589
aS'21-Oct-2012 05:32:14.000'
p590
aS'21-Oct-2012 20:01:38.000'
p591
aS'21-Oct-2012 20:52:34.000'
p592
aS'22-Oct-2012 16:01:26.000'
p593
aS'22-Oct-2012 16:16:54.000'
p594
aS'22-Oct-2012 17:59:42.000'
p595
aS'22-Oct-2012 19:13:46.000'
p596
aS'23-Oct-2012 02:31:34.000'
p597
aS'23-Oct-2012 03:17:22.000'
p598
aS'07-Nov-2012 07:50:38.000'
p599
aS'07-Nov-2012 08:45:06.000'
p600
aS'07-Nov-2012 12:33:22.000'
p601
aS'07-Nov-2012 13:15:10.000'
p602
aS'11-Nov-2012 02:30:18.000'
p603
aS'13-Nov-2012 05:48:14.000'
p604
aS'15-Nov-2012 04:32:22.000'
p605
aS'15-Nov-2012 05:10:22.000'
p606
aS'18-Nov-2012 04:09:10.000'
p607
aS'20-Nov-2012 11:48:22.000'
p608
aS'20-Nov-2012 12:40:50.000'
p609
aS'21-Nov-2012 06:53:30.000'
p610
aS'21-Nov-2012 07:34:18.000'
p611
aS'21-Nov-2012 15:31:42.000'
p612
aS'27-Nov-2012 20:24:50.000'
p613
aS'27-Nov-2012 23:21:06.000'
p614
aS'28-Nov-2012 13:02:50.000'
p615
aS'28-Nov-2012 21:47:50.000'
p616
aS'29-Nov-2012 07:07:54.000'
p617
aS'09-Jan-2013 14:49:14.000'
p618
aS'15-Mar-2013 06:11:10.000'
p619
aS'15-Mar-2013 07:09:22.000'
p620
aS'18-Mar-2013 02:26:46.000'
p621
aS'18-Mar-2013 03:20:50.000'
p622
aS'20-Mar-2013 01:18:50.000'
p623
aS'20-Mar-2013 18:48:26.000'
p624
aS'11-Apr-2013 07:07:38.000'
p625
aS'11-Apr-2013 07:07:38.000'
p626
aS'11-Apr-2013 10:57:18.000'
p627
aS'12-Apr-2013 18:43:50.000'
p628
aS'18-Apr-2013 18:10:30.000'
p629
aS'22-Apr-2013 11:10:58.000'
p630
aS'23-Apr-2013 14:13:50.000'
p631
aS'25-Apr-2013 22:00:42.000'
p632
aS'25-Apr-2013 22:00:42.000'
p633
aS'26-Apr-2013 06:25:50.000'
p634
aS'26-Apr-2013 06:25:50.000'
p635
aS'27-Apr-2013 10:53:50.000'
p636
aS'27-Apr-2013 12:28:54.000'
p637
aS'27-Apr-2013 15:11:46.000'
p638
aS'29-Apr-2013 08:54:50.000'
p639
aS'29-Apr-2013 20:29:02.000'
p640
aS'30-Apr-2013 08:44:50.000'
p641
aS'01-May-2013 05:44:46.000'
p642
aS'01-May-2013 05:44:46.000'
p643
aS'03-May-2013 17:28:54.000'
p644
aS'04-May-2013 03:51:02.000'
p645
aS'09-May-2013 16:37:30.000'
p646
aS'16-May-2013 21:51:38.000'
p647
aS'18-May-2013 20:49:26.000'
p648
aS'18-May-2013 20:49:26.000'
p649
aS'18-May-2013 21:26:42.000'
p650
aS'19-May-2013 16:31:14.000'
p651
aS'19-May-2013 17:21:22.000'
p652
aS'19-May-2013 17:21:22.000'
p653
aS'22-May-2013 01:02:22.000'
p654
aS'23-May-2013 14:49:26.000'
p655
aS'31-May-2013 19:58:34.000'
p656
aS'03-Jun-2013 07:14:42.000'
p657
aS'03-Jun-2013 07:52:06.000'
p658
aS'19-Jun-2013 09:40:06.000'
p659
aS'19-Jun-2013 10:04:26.000'
p660
aS'28-Jun-2013 03:35:30.000'
p661
aS'03-Jul-2013 00:11:18.000'
p662
asS'RHESSI_datetimes'
p663
(lp664
S'30-May-2007 13:46:33.000'
p665
aS'02-Jun-2007 10:31:26.000'
p666
aS'03-Jun-2007 06:36:23.000'
p667
aS'10-Jul-2007 12:36:17.000'
p668
aS'06-Feb-2010 15:29:58.000'
p669
aS'08-Feb-2010 13:41:22.000'
p670
aS'03-Nov-2010 12:11:43.000'
p671
aS'06-Nov-2010 15:31:53.000'
p672
aS'14-Feb-2011 15:41:43.000'
p673
aS'14-Feb-2011 15:41:43.000'
p674
aS'14-Feb-2011 15:41:43.000'
p675
aS'19-Feb-2011 02:56:59.000'
p676
aS'19-Feb-2011 11:49:29.000'
p677
aS'19-Feb-2011 11:49:29.000'
p678
aS'19-Feb-2011 11:49:29.000'
p679
aS'24-Feb-2011 07:27:18.000'
p680
aS'06-Mar-2011 18:12:57.000'
p681
aS'16-Apr-2011 13:53:21.000'
p682
aS'22-Apr-2011 04:38:02.000'
p683
aS'22-Apr-2011 11:19:47.000'
p684
aS'28-Jul-2011 12:05:44.000'
p685
aS'08-Aug-2011 18:01:03.000'
p686
aS'09-Aug-2011 07:56:50.000'
p687
aS'09-Aug-2011 08:10:42.000'
p688
aS'10-Sep-2011 07:22:07.000'
p689
aS'13-Sep-2011 17:48:30.000'
p690
aS'16-Sep-2011 11:32:47.000'
p691
aS'19-Sep-2011 04:30:25.000'
p692
aS'20-Sep-2011 12:29:04.000'
p693
aS'20-Sep-2011 12:29:04.000'
p694
aS'21-Sep-2011 12:08:22.000'
p695
aS'25-Sep-2011 06:52:42.000'
p696
aS'25-Sep-2011 08:37:42.000'
p697
aS'25-Sep-2011 08:37:42.000'
p698
aS'25-Sep-2011 09:27:42.000'
p699
aS'25-Sep-2011 10:27:42.000'
p700
aS'25-Sep-2011 10:27:42.000'
p701
aS'25-Sep-2011 15:00:17.000'
p702
aS'25-Sep-2011 16:10:17.000'
p703
aS'25-Sep-2011 15:00:17.000'
p704
aS'25-Sep-2011 16:10:17.000'
p705
aS'25-Sep-2011 16:10:17.000'
p706
aS'25-Sep-2011 22:15:17.000'
p707
aS'29-Sep-2011 12:07:51.000'
p708
aS'30-Sep-2011 03:10:04.000'
p709
aS'30-Sep-2011 22:38:27.000'
p710
aS'17-Oct-2011 13:22:24.000'
p711
aS'17-Oct-2011 14:17:24.000'
p712
aS'03-Nov-2011 11:02:05.000'
p713
aS'06-Nov-2011 01:01:57.000'
p714
aS'15-Nov-2011 12:38:09.000'
p715
aS'13-Dec-2011 23:31:16.000'
p716
aS'25-Dec-2011 11:23:59.000'
p717
aS'25-Dec-2011 18:13:35.000'
p718
aS'25-Dec-2011 20:23:35.000'
p719
aS'26-Dec-2011 20:13:02.000'
p720
aS'27-Dec-2011 19:22:13.000'
p721
aS'30-Dec-2011 20:20:13.000'
p722
aS'30-Dec-2011 20:20:13.000'
p723
aS'11-Jan-2012 04:44:15.000'
p724
aS'16-Jan-2012 10:24:04.000'
p725
aS'13-Mar-2012 00:35:27.000'
p726
aS'23-Mar-2012 16:36:26.000'
p727
aS'23-Mar-2012 16:36:26.000'
p728
aS'23-Mar-2012 19:36:26.000'
p729
aS'23-Mar-2012 19:36:26.000'
p730
aS'27-Apr-2012 08:20:23.000'
p731
aS'07-May-2012 14:10:54.000'
p732
aS'13-May-2012 04:04:01.000'
p733
aS'25-May-2012 22:23:06.000'
p734
aS'25-Jun-2012 18:15:09.000'
p735
aS'25-Jun-2012 18:15:09.000'
p736
aS'29-Jun-2012 01:18:01.000'
p737
aS'29-Jun-2012 04:10:31.000'
p738
aS'29-Jun-2012 06:44:41.000'
p739
aS'01-Jul-2012 15:43:07.000'
p740
aS'01-Jul-2012 15:43:07.000'
p741
aS'01-Jul-2012 15:43:07.000'
p742
aS'01-Jul-2012 19:11:07.000'
p743
aS'08-Jul-2012 12:53:45.000'
p744
aS'08-Jul-2012 12:53:45.000'
p745
aS'08-Jul-2012 17:31:35.000'
p746
aS'08-Jul-2012 17:31:35.000'
p747
aS'09-Jul-2012 23:04:25.000'
p748
aS'09-Jul-2012 23:04:25.000'
p749
aS'10-Jul-2012 04:32:24.000'
p750
aS'10-Jul-2012 04:59:04.000'
p751
aS'10-Jul-2012 06:12:24.000'
p752
aS'10-Jul-2012 12:19:04.000'
p753
aS'10-Jul-2012 12:39:04.000'
p754
aS'10-Jul-2012 12:39:04.000'
p755
aS'10-Jul-2012 13:42:24.000'
p756
aS'10-Jul-2012 13:42:24.000'
p757
aS'10-Jul-2012 15:42:24.000'
p758
aS'10-Jul-2012 15:42:24.000'
p759
aS'16-Jul-2012 19:39:19.000'
p760
aS'17-Jul-2012 15:18:00.000'
p761
aS'17-Jul-2012 15:18:00.000'
p762
aS'17-Jul-2012 15:53:20.000'
p763
aS'17-Jul-2012 16:33:20.000'
p764
aS'17-Jul-2012 15:18:00.000'
p765
aS'17-Jul-2012 15:53:20.000'
p766
aS'17-Jul-2012 16:33:20.000'
p767
aS'19-Jul-2012 05:10:01.000'
p768
aS'24-Jul-2012 19:00:08.000'
p769
aS'27-Jul-2012 17:17:33.000'
p770
aS'28-Jul-2012 20:47:35.000'
p771
aS'29-Jul-2012 06:18:11.000'
p772
aS'30-Jul-2012 06:08:13.000'
p773
aS'30-Jul-2012 06:08:13.000'
p774
aS'30-Jul-2012 06:08:13.000'
p775
aS'31-Jul-2012 14:21:36.000'
p776
aS'09-Aug-2012 11:43:20.000'
p777
aS'09-Aug-2012 11:43:20.000'
p778
aS'10-Aug-2012 04:13:23.000'
p779
aS'10-Aug-2012 04:13:23.000'
p780
aS'11-Aug-2012 12:07:26.000'
p781
aS'19-Aug-2012 04:36:26.000'
p782
aS'01-Sep-2012 18:27:06.000'
p783
aS'01-Sep-2012 18:27:06.000'
p784
aS'01-Sep-2012 18:27:06.000'
p785
aS'06-Sep-2012 15:18:54.000'
p786
aS'07-Sep-2012 00:42:11.000'
p787
aS'07-Sep-2012 17:32:11.000'
p788
aS'12-Sep-2012 06:10:07.000'
p789
aS'12-Sep-2012 11:10:07.000'
p790
aS'12-Sep-2012 11:10:07.000'
p791
aS'12-Sep-2012 11:10:07.000'
p792
aS'17-Sep-2012 06:17:45.000'
p793
aS'17-Sep-2012 13:54:25.000'
p794
aS'30-Sep-2012 11:38:55.000'
p795
aS'30-Sep-2012 12:05:35.000'
p796
aS'01-Oct-2012 20:46:14.000'
p797
aS'07-Oct-2012 20:22:50.000'
p798
aS'07-Oct-2012 20:22:50.000'
p799
aS'15-Oct-2012 04:20:13.000'
p800
aS'17-Oct-2012 07:54:16.000'
p801
aS'19-Oct-2012 20:50:58.000'
p802
aS'19-Oct-2012 20:50:58.000'
p803
aS'20-Oct-2012 18:07:40.000'
p804
aS'21-Oct-2012 02:58:05.000'
p805
aS'21-Oct-2012 02:58:05.000'
p806
aS'21-Oct-2012 05:28:05.000'
p807
aS'21-Oct-2012 19:58:05.000'
p808
aS'21-Oct-2012 19:58:05.000'
p809
aS'22-Oct-2012 15:58:07.000'
p810
aS'22-Oct-2012 15:58:07.000'
p811
aS'22-Oct-2012 18:44:47.000'
p812
aS'22-Oct-2012 18:44:47.000'
p813
aS'23-Oct-2012 03:24:37.000'
p814
aS'23-Oct-2012 03:24:37.000'
p815
aS'07-Nov-2012 07:51:36.000'
p816
aS'07-Nov-2012 07:51:36.000'
p817
aS'07-Nov-2012 13:01:36.000'
p818
aS'07-Nov-2012 13:01:36.000'
p819
aS'11-Nov-2012 02:22:27.000'
p820
aS'13-Nov-2012 05:44:49.000'
p821
aS'15-Nov-2012 04:27:15.000'
p822
aS'15-Nov-2012 04:27:15.000'
p823
aS'18-Nov-2012 04:01:19.000'
p824
aS'20-Nov-2012 12:39:20.000'
p825
aS'20-Nov-2012 12:39:20.000'
p826
aS'21-Nov-2012 06:49:21.000'
p827
aS'21-Nov-2012 06:49:21.000'
p828
aS'21-Nov-2012 15:22:41.000'
p829
aS'27-Nov-2012 21:21:32.000'
p830
aS'27-Nov-2012 23:18:12.000'
p831
aS'28-Nov-2012 12:21:31.000'
p832
aS'28-Nov-2012 21:28:11.000'
p833
aS'29-Nov-2012 07:08:09.000'
p834
aS'09-Jan-2013 14:35:00.000'
p835
aS'15-Mar-2013 06:27:21.000'
p836
aS'15-Mar-2013 06:27:21.000'
p837
aS'18-Mar-2013 03:17:55.000'
p838
aS'18-Mar-2013 03:17:55.000'
p839
aS'20-Mar-2013 00:45:11.000'
p840
aS'20-Mar-2013 19:11:51.000'
p841
aS'11-Apr-2013 06:59:05.000'
p842
aS'11-Apr-2013 07:15:45.000'
p843
aS'11-Apr-2013 10:35:45.000'
p844
aS'12-Apr-2013 19:15:46.000'
p845
aS'18-Apr-2013 18:07:16.000'
p846
aS'22-Apr-2013 10:25:25.000'
p847
aS'23-Apr-2013 14:12:08.000'
p848
aS'25-Apr-2013 21:26:23.000'
p849
aS'25-Apr-2013 21:59:43.000'
p850
aS'26-Apr-2013 06:23:06.000'
p851
aS'26-Apr-2013 06:56:26.000'
p852
aS'27-Apr-2013 10:49:49.000'
p853
aS'27-Apr-2013 12:09:49.000'
p854
aS'27-Apr-2013 15:09:49.000'
p855
aS'29-Apr-2013 09:13:55.000'
p856
aS'29-Apr-2013 19:40:35.000'
p857
aS'30-Apr-2013 08:54:38.000'
p858
aS'01-May-2013 05:51:20.000'
p859
aS'01-May-2013 06:11:20.000'
p860
aS'03-May-2013 16:46:46.000'
p861
aS'04-May-2013 04:02:09.000'
p862
aS'09-May-2013 16:36:21.000'
p863
aS'16-May-2013 22:07:16.000'
p864
aS'18-May-2013 20:05:15.000'
p865
aS'18-May-2013 20:48:35.000'
p866
aS'18-May-2013 20:48:35.000'
p867
aS'19-May-2013 17:11:54.000'
p868
aS'19-May-2013 17:11:54.000'
p869
aS'19-May-2013 17:38:34.000'
p870
aS'22-May-2013 00:53:10.000'
p871
aS'23-May-2013 14:46:28.000'
p872
aS'31-May-2013 19:56:08.000'
p873
aS'03-Jun-2013 07:09:59.000'
p874
aS'03-Jun-2013 07:09:59.000'
p875
aS'19-Jun-2013 09:36:43.000'
p876
aS'19-Jun-2013 09:36:43.000'
p877
aS'28-Jun-2013 03:33:56.000'
p878
aS'02-Jul-2013 23:52:37.000'
p879
assS'Flare_properties'
p880
(dp881
S'Messenger_EM1'
p882
(lp883
F1.9132308959960938
aF0.2716652750968933
aF0.9723700284957886
aF0.19795195758342743
aF0.09884947538375854
aF0.4793899655342102
aF0.6588686108589172
aF1.0351818799972534
aF0.402648389339447
aF0.402648389339447
aF0.402648389339447
aF0.09830959886312485
aF0.6024743914604187
aF0.6024743914604187
aF0.6024743914604187
aF0.593190610408783
aF0.0705767497420311
aF0.14367404580116272
aF0.5186775326728821
aF0.19796304404735565
aF0.11105838418006897
aF0.8364405035972595
aF3.61460542678833
aF2.5038540363311768
aF0.2597445547580719
aF0.07715854793787003
aF0.12566624581813812
aF0.07613462954759598
aF0.28322750329971313
aF0.28322750329971313
aF0.08948918431997299
aF0.17041975259780884
aF0.0790722444653511
aF0.0790722444653511
aF0.14536704123020172
aF0.13384737074375153
aF0.13384737074375153
aF0.09980053454637527
aF0.13863223791122437
aF0.09980053454637527
aF0.13863223791122437
aF0.13863223791122437
aF0.15108567476272583
aF0.09411320835351944
aF0.13022634387016296
aF0.25317442417144775
aF0.1127326637506485
aF0.23396466672420502
aF0.574850857257843
aF0.28179019689559937
aF0.4428783357143402
aF0.12275230884552002
aF0.18369963765144348
aF0.5508370399475098
aF0.1379377394914627
aF0.5200287103652954
aF0.40036460757255554
aF0.11724751442670822
aF0.11724751442670822
aF0.08064226061105728
aF0.08211403340101242
aF0.08098417520523071
aF0.11419486254453659
aF0.11419486254453659
aF0.11967691034078598
aF0.11967691034078598
aF0.18063272535800934
aF0.3455549478530884
aF0.07288413494825363
aF0.2512727975845337
aF0.1909969002008438
aF0.1909969002008438
aF0.04773096740245819
aF0.05121193826198578
aF0.09896725416183472
aF0.1700126677751541
aF0.1700126677751541
aF0.1700126677751541
aF0.25930532813072205
aF0.14877942204475403
aF0.14877942204475403
aF0.11025452613830566
aF0.11025452613830566
aF0.1784595102071762
aF0.1784595102071762
aF0.15423350036144257
aF0.42159199714660645
aF0.4400708079338074
aF0.09549760818481445
aF0.09791237115859985
aF0.09791237115859985
aF0.187618225812912
aF0.187618225812912
aF0.09292082488536835
aF0.09292082488536835
aF0.15023334324359894
aF0.24834628403186798
aF0.24834628403186798
aF0.2797585427761078
aF0.369098424911499
aF0.24834628403186798
aF0.2797585427761078
aF0.369098424911499
aF0.19716580212116241
aF0.11599801480770111
aF0.6932277083396912
aF0.8768524527549744
aF0.5959365367889404
aF0.06938488036394119
aF0.06938488036394119
aF0.06938488036394119
aF0.10257784277200699
aF0.18327176570892334
aF0.18327176570892334
aF0.08926078677177429
aF0.08926078677177429
aF0.29908910393714905
aF0.32645517587661743
aF0.045844193547964096
aF0.045844193547964096
aF0.045844193547964096
aF0.0541812963783741
aF0.0
aF0.12195955961942673
aF0.29656359553337097
aF0.9403415322303772
aF0.9403415322303772
aF0.9403415322303772
aF0.07907986640930176
aF0.06403113901615143
aF0.2871834635734558
aF0.3483656048774719
aF0.18882372975349426
aF0.9742012023925781
aF0.9742012023925781
aF0.07638668268918991
aF0.22131963074207306
aF0.2696772813796997
aF0.2696772813796997
aF0.8483310341835022
aF0.1704379767179489
aF0.1704379767179489
aF0.13622628152370453
aF0.3658488690853119
aF0.3658488690853119
aF0.12836667895317078
aF0.12836667895317078
aF1.3075462579727173
aF1.3075462579727173
aF0.7462505102157593
aF0.7462505102157593
aF0.06996766477823257
aF0.06996766477823257
aF0.07735952734947205
aF0.07735952734947205
aF0.26641330122947693
aF0.7113370895385742
aF0.14421454071998596
aF0.14421454071998596
aF0.12925401329994202
aF0.37603628635406494
aF0.37603628635406494
aF0.3331809341907501
aF0.3331809341907501
aF0.5779114365577698
aF0.2478010654449463
aF0.16028906404972076
aF0.0942024290561676
aF0.530226469039917
aF0.07198918610811234
aF0.3057173490524292
aF0.15512745082378387
aF0.15512745082378387
aF0.04404609650373459
aF0.04404609650373459
aF0.27817869186401367
aF0.13273945450782776
aF1.3806710243225098
aF1.533174991607666
aF0.17617885768413544
aF0.09905144572257996
aF0.19194439053535461
aF0.2010876089334488
aF0.16272865235805511
aF0.17914235591888428
aF0.19804944097995758
aF0.16201002895832062
aF0.13087955117225647
aF0.07048609107732773
aF0.21824763715267181
aF0.08498410880565643
aF0.09412454813718796
aF0.1479135900735855
aF0.11546306312084198
aF0.12271130830049515
aF0.15871725976467133
aF0.1574050635099411
aF0.10165289789438248
aF0.04800063744187355
aF0.11465779691934586
aF0.24894043803215027
aF0.2555743157863617
aF0.2555743157863617
aF0.11846540123224258
aF0.11846540123224258
aF0.31397488713264465
aF0.04658357426524162
aF0.08097653090953827
aF0.25940123200416565
aF0.16102473437786102
aF0.16102473437786102
aF0.17854319512844086
aF0.17854319512844086
aF0.16140364110469818
aF0.002810452366247773
asS'RHESSI_total_counts'
p884
(lp885
F0.0
aF0.0
aF0.0
aF0.0
aF0.0
aF0.0
aF0.0
aF0.0
aF0.0
aF0.0
aF0.0
aF0.0
aF0.0
aF0.0
aF0.0
aF0.0
aF0.0
aF0.0
aF0.0
aF0.0
aF0.0
aF0.0
aF0.0
aF0.0
aF0.0
aF0.0
aF0.0
aF0.0
aF0.0
aF0.0
aF0.0
aF0.0
aF0.0
aF0.0
aF0.0
aF0.0
aF0.0
aF0.0
aF0.0
aF0.0
aF0.0
aF0.0
aF0.0
aF0.0
aF0.0
aF0.0
aF0.0
aF0.0
aF0.0
aF0.0
aF0.0
aF0.0
aF0.0
aF0.0
aF0.0
aF0.0
aF0.0
aF0.0
aF0.0
aF0.0
aF0.0
aF0.0
aF0.0
aF0.0
aF0.0
aF0.0
aF0.0
aF0.0
aF0.0
aF0.0
aF0.0
aF0.0
aF0.0
aF0.0
aF0.0
aF0.0
aF0.0
aF0.0
aF0.0
aF0.0
aF0.0
aF0.0
aF0.0
aF0.0
aF0.0
aF0.0
aF0.0
aF0.0
aF0.0
aF0.0
aF0.0
aF0.0
aF0.0
aF0.0
aF0.0
aF0.0
aF0.0
aF0.0
aF0.0
aF0.0
aF0.0
aF0.0
aF0.0
aF0.0
aF0.0
aF0.0
aF0.0
aF0.0
aF0.0
aF0.0
aF0.0
aF0.0
aF0.0
aF0.0
aF0.0
aF0.0
aF0.0
aF0.0
aF0.0
aF0.0
aF0.0
aF0.0
aF0.0
aF0.0
aF0.0
aF0.0
aF0.0
aF0.0
aF0.0
aF0.0
aF0.0
aF0.0
aF0.0
aF0.0
aF0.0
aF0.0
aF0.0
aF0.0
aF0.0
aF0.0
aF0.0
aF0.0
aF0.0
aF0.0
aF0.0
aF0.0
aF0.0
aF0.0
aF0.0
aF0.0
aF0.0
aF0.0
aF0.0
aF0.0
aF0.0
aF0.0
aF0.0
aF0.0
aF0.0
aF0.0
aF0.0
aF0.0
aF0.0
aF0.0
aF0.0
aF0.0
aF0.0
aF0.0
aF0.0
aF0.0
aF0.0
aF0.0
aF0.0
aF0.0
aF0.0
aF0.0
aF0.0
aF0.0
aF0.0
aF0.0
aF0.0
aF0.0
aF0.0
aF0.0
aF0.0
aF0.0
aF0.0
aF0.0
aF0.0
aF0.0
aF0.0
aF0.0
aF0.0
aF0.0
aF0.0
aF0.0
aF0.0
aF0.0
aF0.0
aF0.0
aF0.0
aF0.0
aF0.0
aF0.0
aF0.0
aF0.0
aF0.0
aF0.0
aF0.0
aF0.0
aF0.0
aF0.0
aF0.0
aF0.0
aF0.0
asS'Messenger_GOES'
p886
(lp887
S'M4.2'
p888
aS'C5.9'
p889
aS'M2.0'
p890
aS'C4.1'
p891
aS'C1.8'
p892
aS'C9.3'
p893
aS'M1.4'
p894
aS'M2.1'
p895
aS'C7.7'
p896
aS'C7.7'
p897
aS'C7.7'
p898
aS'C2.0'
p899
aS'M1.2'
p900
aS'M1.2'
p901
aS'M1.2'
p902
aS'M1.2'
p903
aS'C1.4'
p904
aS'C2.6'
p905
aS'C9.8'
p906
aS'C3.5'
p907
aS'C2.1'
p908
aS'M1.8'
p909
aS'M5.3'
p910
aS'M5.3'
p911
aS'C5.3'
p912
aS'C1.4'
p913
aS'C2.5'
p914
aS'C1.4'
p915
aS'C5.3'
p916
aS'C5.3'
p917
aS'C1.8'
p918
aS'C3.2'
p919
aS'C1.4'
p920
aS'C2.3'
p921
aS'C2.3'
p922
aS'C2.3'
p923
aS'C2.3'
p924
aS'C2.6'
p925
aS'C2.6'
p926
aS'C2.6'
p927
aS'C2.6'
p928
aS'C2.6'
p929
aS'C2.9'
p930
aS'C1.8'
p931
aS'C2.4'
p932
aS'C4.9'
p933
aS'C4.5'
p934
aS'C4.5'
p935
aS'M1.3'
p936
aS'C5.6'
p937
aS'C8.6'
p938
aS'C2.1'
p939
aS'C3.3'
p940
aS'M1.2'
p941
aS'C2.4'
p942
aS'M1.1'
p943
aS'C7.6'
p944
aS'C2.1'
p945
aS'C2.1'
p946
aS'C1.5'
p947
aS'C1.6'
p948
aS'C1.5'
p949
aS'C2.3'
p950
aS'C2.3'
p951
aS'C2.6'
p952
aS'C2.6'
p953
aS'C3.7'
p954
aS'C7.1'
p955
aS'C1.4'
p956
aS'C5.2'
p957
aS'C3.6'
p958
aS'C3.6'
p959
aS'C1.0'
p960
aS'C1.0'
p961
aS'C1.9'
p962
aS'C3.0'
p963
aS'C3.0'
p964
aS'C3.0'
p965
aS'C5.8'
p966
aS'C2.7'
p967
aS'C2.7'
p968
aS'C2.0'
p969
aS'C2.0'
p970
aS'C3.6'
p971
aS'C3.6'
p972
aS'C8.8'
p973
aS'C8.8'
p974
aS'C9.1'
p975
aS'C1.8'
p976
aS'C1.8'
p977
aS'C3.7'
p978
aS'C3.7'
p979
aS'C3.7'
p980
aS'C1.8'
p981
aS'C1.8'
p982
aS'C2.8'
p983
aS'C4.0'
p984
aS'C6.4'
p985
aS'C6.4'
p986
aS'C6.4'
p987
aS'C6.4'
p988
aS'C6.4'
p989
aS'C6.4'
p990
aS'C4.6'
p991
aS'C2.1'
p992
aS'M1.5'
p993
aS'M2.0'
p994
aS'M1.2'
p995
aS'C1.3'
p996
aS'C1.3'
p997
aS'C1.3'
p998
aS'C2.0'
p999
aS'C3.3'
p1000
aS'C3.3'
p1001
aS'C1.7'
p1002
aS'C1.7'
p1003
aS'C4.9'
p1004
aS'C6.2'
p1005
aS'B8.6'
p1006
aS'B8.6'
p1007
aS'B8.6'
p1008
aS'C1.1'
p1009
aS''
p1010
aS'C2.3'
p1011
aS'C5.9'
p1012
aS'M2.1'
p1013
aS'M2.1'
p1014
aS'M2.1'
p1015
aS'C1.6'
p1016
aS'C1.2'
p1017
aS'C6.9'
p1018
aS'C6.9'
p1019
aS'C3.8'
p1020
aS'M2.1'
p1021
aS'M2.1'
p1022
aS'C1.6'
p1023
aS'C4.0'
p1024
aS'C5.3'
p1025
aS'C5.3'
p1026
aS'M2.1'
p1027
aS'C3.5'
p1028
aS'C3.5'
p1029
aS'C2.8'
p1030
aS'C7.7'
p1031
aS'C7.7'
p1032
aS'C2.2'
p1033
aS'C2.2'
p1034
aS'M2.9'
p1035
aS'M2.9'
p1036
aS'M1.4'
p1037
aS'M1.4'
p1038
aS'C1.5'
p1039
aS'C1.5'
p1040
aS'C1.5'
p1041
aS'C1.5'
p1042
aS'C4.8'
p1043
aS'M1.5'
p1044
aS'C2.7'
p1045
aS'C2.7'
p1046
aS'C2.3'
p1047
aS'C7.7'
p1048
aS'C7.7'
p1049
aS'C7.0'
p1050
aS'C7.0'
p1051
aS'M1.3'
p1052
aS'C4.8'
p1053
aS'C2.9'
p1054
aS'C1.8'
p1055
aS'M1.1'
p1056
aS'C1.4'
p1057
aS'C6.4'
p1058
aS'C2.9'
p1059
aS'C2.9'
p1060
aS'B8.6'
p1061
aS'B8.6'
p1062
aS'C5.7'
p1063
aS'C2.4'
p1064
aS'M2.9'
p1065
aS'M2.9'
p1066
aS'C3.1'
p1067
aS'C1.8'
p1068
aS'C3.4'
p1069
aS'C3.9'
p1070
aS'C3.5'
p1071
aS'C3.7'
p1072
aS'C3.7'
p1073
aS'C2.3'
p1074
aS'C2.3'
p1075
aS'C1.4'
p1076
aS'C4.4'
p1077
aS'C1.6'
p1078
aS'C1.8'
p1079
aS'C2.8'
p1080
aS'C2.3'
p1081
aS'C2.7'
p1082
aS'C2.7'
p1083
aS'C2.9'
p1084
aS'C2.0'
p1085
aS'B9.2'
p1086
aS'C2.0'
p1087
aS'C4.6'
p1088
aS'C4.6'
p1089
aS'C4.6'
p1090
aS'C2.2'
p1091
aS'C5.6'
p1092
aS'C5.6'
p1093
aS'B8.9'
p1094
aS'C1.5'
p1095
aS'C4.7'
p1096
aS'C3.1'
p1097
aS'C3.1'
p1098
aS'C3.6'
p1099
aS'C3.6'
p1100
aS'C3.1'
p1101
aS'-1'
p1102
asS'GOES_GOES'
p1103
(lp1104
S'B2.5'
p1105
aS'C8.0'
p1106
aS'M1.9'
p1107
aS'C4.4'
p1108
aS'C3.3'
p1109
aS'M1.7'
p1110
aS'C4.3'
p1111
aS'M4.3'
p1112
aS'C1.2'
p1113
aS'C1.2'
p1114
aS'C1.2'
p1115
aS'C3.1'
p1116
aS'C1.0'
p1117
aS'C1.0'
p1118
aS'C1.0'
p1119
aS'M2.8'
p1120
aS'C1.8'
p1121
aS'C5.1'
p1122
aS'M1.7'
p1123
aS'C6.3'
p1124
aS'C4.5'
p1125
aS'M3.1'
p1126
aS'X5.5'
p1127
aS'X1.1'
p1128
aS'M1.0'
p1129
aS'C1.5'
p1130
aS'C6.1'
p1131
aS'C1.1'
p1132
aS'C1.6'
p1133
aS'C1.6'
p1134
aS'M1.8'
p1135
aS'M1.3'
p1136
aS'C6.4'
p1137
aS'C6.4'
p1138
aS'M1.4'
p1139
aS'C6.9'
p1140
aS'C6.9'
p1141
aS'C5.5'
p1142
aS'M1.2'
p1143
aS'C5.5'
p1144
aS'M1.2'
p1145
aS'M1.2'
p1146
aS'C6.9'
p1147
aS'B6.2'
p1148
aS'B5.2'
p1149
aS'C1.1'
p1150
aS'C1.1'
p1151
aS'C2.3'
p1152
aS'M2.4'
p1153
aS'M1.1'
p1154
aS'M1.8'
p1155
aS'C4.6'
p1156
aS'C8.5'
p1157
aS'M3.7'
p1158
aS'C5.8'
p1159
aS'M2.0'
p1160
aS'C1.3'
p1161
aS'C4.3'
p1162
aS'C4.3'
p1163
aS'C3.8'
p1164
aS'C1.6'
p1165
aS'C4.0'
p1166
aS'C6.2'
p1167
aS'C6.2'
p1168
aS'C4.5'
p1169
aS'C4.5'
p1170
aS'C9.0'
p1171
aS'M1.5'
p1172
aS'C4.4'
p1173
aS'B5.9'
p1174
aS'B2.8'
p1175
aS'B2.8'
p1176
aS'B7.7'
p1177
aS'C5.2'
p1178
aS'C3.6'
p1179
aS'C6.5'
p1180
aS'C6.5'
p1181
aS'C6.5'
p1182
aS'C3.0'
p1183
aS'C6.0'
p1184
aS'C6.0'
p1185
aS'C8.8'
p1186
aS'C8.8'
p1187
aS'C8.2'
p1188
aS'C8.2'
p1189
aS'C7.0'
p1190
aS'M1.5'
p1191
aS'M1.8'
p1192
aS'C5.5'
p1193
aS'C4.6'
p1194
aS'C4.6'
p1195
aS'C7.7'
p1196
aS'C7.7'
p1197
aS'C4.7'
p1198
aS'C4.7'
p1199
aS'C5.7'
p1200
aS'C8.6'
p1201
aS'C8.6'
p1202
aS'C9.9'
p1203
aS'M1.4'
p1204
aS'C8.6'
p1205
aS'C9.9'
p1206
aS'M1.4'
p1207
aS'M2.2'
p1208
aS'C4.3'
p1209
aS'M2.8'
p1210
aS'M3.6'
p1211
aS'M2.3'
p1212
aS'C3.3'
p1213
aS'C3.3'
p1214
aS'C3.3'
p1215
aS'C4.7'
p1216
aS'C7.5'
p1217
aS'C7.5'
p1218
aS'C4.0'
p1219
aS'C4.0'
p1220
aS'M1.0'
p1221
aS'C1.2'
p1222
aS'C3.0'
p1223
aS'C3.0'
p1224
aS'C3.0'
p1225
aS'C7.0'
p1226
aS'      -1'
p1227
aS'B6.3'
p1228
aS'B5.0'
p1229
aS'B7.7'
p1230
aS'B7.7'
p1231
aS'B7.7'
p1232
aS'B4.7'
p1233
aS'C2.0'
p1234
aS'B8.2'
p1235
aS'B5.5'
p1236
aS'C1.2'
p1237
aS'B7.6'
p1238
aS'B7.6'
p1239
aS'C3.1'
p1240
aS'C6.7'
p1241
aS'C3.5'
p1242
aS'C3.5'
p1243
aS'M3.0'
p1244
aS'C6.6'
p1245
aS'C6.6'
p1246
aS'C5.0'
p1247
aS'M1.3'
p1248
aS'M1.3'
p1249
aS'C4.6'
p1250
aS'C4.6'
p1251
aS'M4.5'
p1252
aS'M4.5'
p1253
aS'M2.4'
p1254
aS'M2.4'
p1255
aS'B4.3'
p1256
aS'B4.3'
p1257
aS'B2.8'
p1258
aS'B2.8'
p1259
aS'M1.0'
p1260
aS'M2.4'
p1261
aS'C6.2'
p1262
aS'C6.2'
p1263
aS'C5.4'
p1264
aS'M1.6'
p1265
aS'M1.6'
p1266
aS'M1.3'
p1267
aS'M1.3'
p1268
aS'M2.6'
p1269
aS'M1.1'
p1270
aS'C7.0'
p1271
aS'C4.5'
p1272
aS'M2.3'
p1273
aS'C3.6'
p1274
aS'C2.3'
p1275
aS'C7.6'
p1276
aS'C7.6'
p1277
aS'C2.5'
p1278
aS'C2.5'
p1279
aS'C5.2'
p1280
aS'B3.3'
p1281
aS'M6.2'
p1282
aS'M6.5'
p1283
aS'C6.1'
p1284
aS'C1.6'
p1285
aS'C6.4'
p1286
aS'C7.8'
p1287
aS'C8.1'
p1288
aS'B8.6'
p1289
aS'C5.5'
p1290
aS'C6.8'
p1291
aS'C1.7'
p1292
aS'B9.3'
p1293
aS'C2.5'
p1294
aS'C1.7'
p1295
aS'C1.3'
p1296
aS'C1.0'
p1297
aS'C1.3'
p1298
aS'B9.3'
p1299
aS'B8.5'
p1300
aS'M1.3'
p1301
aS'B7.5'
p1302
aS'C1.2'
p1303
aS'C3.6'
p1304
aS'B5.1'
p1305
aS'C1.7'
p1306
aS'C1.7'
p1307
aS'C4.3'
p1308
aS'C4.3'
p1309
aS'C9.2'
p1310
aS'C2.3'
p1311
aS'C3.9'
p1312
aS'M1.0'
p1313
aS'C9.1'
p1314
aS'C9.1'
p1315
aS'C8.0'
p1316
aS'C8.0'
p1317
aS'C7.0'
p1318
ag1010
asS'Messenger_T'
p1319
(lp1320
F1.6424274444580078
aF1.649368405342102
aF1.4486442804336548
aF1.5442405939102173
aF1.2884585857391357
aF1.3720481395721436
aF1.5557674169540405
aF1.458846926689148
aF1.334088683128357
aF1.334088683128357
aF1.334088683128357
aF1.450569987297058
aF1.3778856992721558
aF1.3778856992721558
aF1.3778856992721558
aF1.3962745666503906
aF1.359162449836731
aF1.2179546356201172
aF1.3011916875839233
aF1.1986337900161743
aF1.2826601266860962
aF1.5653676986694336
aF2.2097654342651367
aF1.5662633180618286
aF1.4730812311172485
aF1.2313417196273804
aF1.3983724117279053
aF1.2881914377212524
aF1.2741776704788208
aF1.2741776704788208
aF1.4602558612823486
aF1.2853518724441528
aF1.2406316995620728
aF1.2406316995620728
aF1.3484078645706177
aF1.1369584798812866
aF1.1369584798812866
aF1.2840265035629272
aF1.2606936693191528
aF1.2840265035629272
aF1.2606936693191528
aF1.2606936693191528
aF1.3318352699279785
aF1.3098466396331787
aF1.2375298738479614
aF1.3468610048294067
aF1.523322582244873
aF1.3568305969238281
aF1.688980221748352
aF1.4066596031188965
aF1.3565245866775513
aF1.1630961894989014
aF1.2271233797073364
aF1.5865402221679688
aF1.1493890285491943
aF1.4716897010803223
aF1.3179060220718384
aF1.2131898403167725
aF1.2131898403167725
aF1.2747217416763306
aF1.3915741443634033
aF1.2404863834381104
aF1.439204454421997
aF1.439204454421997
aF1.5903096199035645
aF1.5903096199035645
aF1.4577932357788086
aF1.4824975728988647
aF1.3899917602539062
aF1.5119558572769165
aF1.3043304681777954
aF1.3043304681777954
aF1.6164642572402954
aF1.3936139345169067
aF1.2919317483901978
aF1.196618914604187
aF1.196618914604187
aF1.196618914604187
aF1.709333062171936
aF1.2567274570465088
aF1.2567274570465088
aF1.2493500709533691
aF1.2493500709533691
aF1.4336814880371094
aF1.4336814880371094
aF1.3757238388061523
aF1.5237456560134888
aF1.5227508544921875
aF1.455165147781372
aF1.278247594833374
aF1.278247594833374
aF1.4069825410842896
aF1.4069825410842896
aF1.3086724281311035
aF1.3086724281311035
aF1.2645684480667114
aF1.0748820304870605
aF1.0748820304870605
aF1.0674281120300293
aF1.169991135597229
aF1.0748820304870605
aF1.0674281120300293
aF1.169991135597229
aF1.829171061515808
aF1.2467366456985474
aF1.5495017766952515
aF1.77115797996521
aF1.4604045152664185
aF1.332182765007019
aF1.332182765007019
aF1.332182765007019
aF1.3338359594345093
aF1.2334953546524048
aF1.2334953546524048
aF1.3782215118408203
aF1.3782215118408203
aF1.081304907798767
aF1.3217105865478516
aF1.303905725479126
aF1.303905725479126
aF1.303905725479126
aF1.36699378490448
aF0.27
aF1.2746186256408691
aF1.422725796699524
aF1.6618163585662842
aF1.6618163585662842
aF1.6618163585662842
aF1.4121644496917725
aF1.2659599781036377
aF1.62890625
aF1.4116450548171997
aF1.451911211013794
aF1.6317859888076782
aF1.6317859888076782
aF1.5534217357635498
aF1.219056248664856
aF1.3895549774169922
aF1.3895549774169922
aF2.02901554107666
aF1.500320315361023
aF1.500320315361023
aF1.5080721378326416
aF1.5657784938812256
aF1.5657784938812256
aF1.1643403768539429
aF1.1643403768539429
aF1.7137101888656616
aF1.7137101888656616
aF1.3162747621536255
aF1.3162747621536255
aF1.5258815288543701
aF1.5258815288543701
aF1.3594709634780884
aF1.3594709634780884
aF1.2176400423049927
aF1.5267884731292725
aF1.2585949897766113
aF1.2585949897766113
aF1.1826354265213013
aF1.4844975471496582
aF1.4844975471496582
aF1.5336182117462158
aF1.5336182117462158
aF1.67386794090271
aF1.3689630031585693
aF1.2456599473953247
aF1.332794189453125
aF1.4303754568099976
aF1.3580888509750366
aF1.54214346408844
aF1.2898659706115723
aF1.2898659706115723
aF1.38840651512146
aF1.38840651512146
aF1.4949873685836792
aF1.2456958293914795
aF1.479357123374939
aF1.3409932851791382
aF1.1933032274246216
aF1.2757242918014526
aF1.1889344453811646
aF1.37529456615448
aF1.606756329536438
aF1.2479075193405151
aF1.3076648712158203
aF1.3917310237884521
aF1.2005689144134521
aF1.3904310464859009
aF1.450145959854126
aF1.3162158727645874
aF1.306836724281311
aF1.3289446830749512
aF1.4631344079971313
aF1.2358393669128418
aF1.1413390636444092
aF1.2454659938812256
aF1.3785001039505005
aF1.336104393005371
aF1.1600126028060913
aF1.5245741605758667
aF1.233235478401184
aF1.233235478401184
aF1.2921913862228394
aF1.2921913862228394
aF1.2063266038894653
aF1.3424512147903442
aF1.3168082237243652
aF1.2149667739868164
aF1.3356235027313232
aF1.3356235027313232
aF1.4231972694396973
aF1.4231972694396973
aF1.3402460813522339
aF1.018800139427185
asS'RHESSI_GOES'
p1321
(lp1322
S'C2.0*'
p1323
aS'M1.0'
p1324
ag1010
aS'C1.1*'
p1325
aS'B1.3'
p1326
aS'B1.3'
p1327
aS'B4.7*'
p1328
aS'C8.2'
p1329
aS'B2.2'
p1330
aS'B7.8'
p1331
ag1010
ag1010
aS'B2.7'
p1332
aS'C1.0'
p1333
aS'C1.1*'
p1334
ag1010
ag1010
aS'C2.1'
p1335
aS'C1.1'
p1336
aS'B8.4'
p1337
ag1010
aS'B1.2'
p1338
aS'B2.7'
p1339
aS'B7.2'
p1340
aS'B5.2*'
p1341
ag1010
aS'C1.1'
p1342
aS'C2.2*'
p1343
ag1010
aS'C2.2'
p1344
aS'C3.4'
p1345
ag1010
aS'B1.5'
p1346
ag1010
ag1010
aS'C8.8'
p1347
aS'B6.5'
p1348
aS'B7.7'
p1349
aS'C2.4'
p1350
aS'B8.5'
p1351
ag1010
ag1010
aS'C3.2*'
p1352
aS'C1.5*'
p1353
aS'C1.5*'
p1354
aS'B5.3'
p1355
aS'B3.5*'
p1356
aS'C3.3'
p1357
aS'C1.7'
p1358
aS'B3.2'
p1359
aS'B7.2'
p1360
aS'C2.5*'
p1361
aS'C1.2'
p1362
aS'C1.1*'
p1363
aS'C4.9'
p1364
ag1010
ag1010
ag1010
aS'C1.5'
p1365
aS'B9.5'
p1366
aS'B1.1'
p1367
ag1010
aS'B3.3'
p1368
aS'B5.1'
p1369
aS'C1.6'
p1370
aS'B4.1'
p1371
aS'B2.2'
p1372
aS'C1.0'
p1373
aS'C2.2'
p1374
aS'C1.1*'
p1375
aS'C1.3*'
p1376
ag1010
aS'C1.4'
p1377
aS'C1.2'
p1378
aS'C1.5'
p1379
aS'B4.5*'
p1380
aS'B6.9'
p1381
aS'C2.6'
p1382
aS'B6.7'
p1383
ag1010
ag1010
ag1010
aS'C4.7'
p1384
ag1010
ag1010
ag1010
ag1010
aS'C1.7'
p1385
aS'C9.4'
p1386
aS'C7.0'
p1387
ag1010
ag1010
ag1010
aS'B7.9'
p1388
aS'M2.2'
p1389
ag1010
aS'C2.7'
p1390
aS'X2.2'
p1391
ag1010
aS'C6.6*'
p1392
aS'C6.6*'
p1393
aS'M1.1'
p1394
ag1010
ag1010
aS'M1.6'
p1395
ag1010
ag1010
ag1010
ag1010
ag1010
ag1010
ag1010
ag1010
ag1010
ag1010
aS'M6.6*'
p1396
aS'M6.6*'
p1397
ag1010
ag1010
aS'M1.0'
p1398
aS'C5.0'
p1399
aS'C5.5'
p1400
ag1010
ag1010
ag1010
aS'C2.6'
p1401
ag1010
ag1010
ag1010
aS'C1.1'
p1402
ag1010
ag1010
ag1010
aS'C1.0'
p1403
ag1010
aS'C2.7'
p1404
aS'C1.5'
p1405
ag1010
aS'M3.5'
p1406
aS'B8.3*'
p1407
ag1010
aS'C2.9*'
p1408
ag1010
ag1010
ag1010
aS'C2.2*'
p1409
aS'C2.2*'
p1410
ag1010
ag1010
aS'C5.0'
p1411
aS'M1.2'
p1412
ag1010
ag1010
aS'M3.7*'
p1413
aS'M3.7*'
p1414
aS'M1.5*'
p1415
aS'M1.5*'
p1416
ag1010
aS'M1.3'
p1417
aS'M1.5'
p1418
ag1010
ag1010
ag1010
aS'M4.4'
p1419
ag1010
aS'M1.4*'
p1420
aS'M1.4*'
p1421
ag1010
aS'C9.4*'
p1422
ag1010
ag1010
ag1010
ag1010
aS'X1.5'
p1423
ag1010
ag1010
aS'M1.1'
p1424
aS'C1.4'
p1425
ag1010
ag1010
aS'C5.5'
p1426
ag1010
aS'C2.0'
p1427
ag1010
aS'C1.1'
p1428
ag1010
aS'C1.2'
p1429
aS'B9.0'
p1430
ag1010
aS'C2.2'
p1431
ag1010
aS'C6.4'
p1432
aS'B8.5'
p1433
aS'C2.2'
p1434
aS'M4.2*'
p1435
ag1010
aS'B7.4*'
p1436
aS'C5.2'
p1437
aS'C3.7*'
p1438
aS'C3.7*'
p1439
aS'C3.7*'
p1440
aS'C3.7*'
p1441
aS'C3.7*'
p1442
ag1010
ag1010
ag1010
aS'C4.2*'
p1443
ag1010
ag1010
ag1010
aS'C1.6*'
p1444
aS'C1.6*'
p1445
aS'C1.3*'
p1446
aS'C1.0'
p1447
ag1010
asS'source_vis'
p1448
(lp1449
S'nan'
p1450
aS'nan'
p1451
aS'nan'
p1452
aS'nan'
p1453
aS'nan'
p1454
aS'nan'
p1455
aS'nan'
p1456
aS'nan'
p1457
aS'nan'
p1458
aS'nan'
p1459
aS'nan'
p1460
aS'nan'
p1461
aS'nan'
p1462
aS'nan'
p1463
aS'nan'
p1464
aS'nan'
p1465
aS'nan'
p1466
aS'nan'
p1467
aS'nan'
p1468
aS'nan'
p1469
aS'nan'
p1470
aS'nan'
p1471
aS'nan'
p1472
aS'nan'
p1473
aS'nan'
p1474
aS'nan'
p1475
aS'nan'
p1476
aS'nan'
p1477
aS'nan'
p1478
aS'nan'
p1479
aS'nan'
p1480
aS'nan'
p1481
aS'nan'
p1482
aS'nan'
p1483
aS'nan'
p1484
aS'nan'
p1485
aS'nan'
p1486
aS'nan'
p1487
aS'nan'
p1488
aS'nan'
p1489
aS'nan'
p1490
aS'nan'
p1491
aS'nan'
p1492
aS'nan'
p1493
aS'nan'
p1494
aS'nan'
p1495
aS'nan'
p1496
aS'nan'
p1497
aS'nan'
p1498
aS'nan'
p1499
aS'nan'
p1500
aS'nan'
p1501
aS'nan'
p1502
aS'nan'
p1503
aS'nan'
p1504
aS'nan'
p1505
aS'nan'
p1506
aS'nan'
p1507
aS'nan'
p1508
aS'nan'
p1509
aS'nan'
p1510
aS'nan'
p1511
aS'nan'
p1512
aS'nan'
p1513
aS'nan'
p1514
aS'nan'
p1515
aS'nan'
p1516
aS'nan'
p1517
aS'nan'
p1518
aS'nan'
p1519
aS'nan'
p1520
aS'nan'
p1521
aS'nan'
p1522
aS'nan'
p1523
aS'nan'
p1524
aS'nan'
p1525
aS'nan'
p1526
aS'nan'
p1527
aS'nan'
p1528
aS'nan'
p1529
aS'nan'
p1530
aS'nan'
p1531
aS'nan'
p1532
aS'nan'
p1533
aS'nan'
p1534
aS'nan'
p1535
aS'nan'
p1536
aS'nan'
p1537
aS'nan'
p1538
aS'nan'
p1539
aS'nan'
p1540
aS'nan'
p1541
aS'nan'
p1542
aS'nan'
p1543
aS'nan'
p1544
aS'nan'
p1545
aS'nan'
p1546
aS'nan'
p1547
aS'nan'
p1548
aS'nan'
p1549
aS'nan'
p1550
aS'nan'
p1551
aS'nan'
p1552
aS'nan'
p1553
aS'nan'
p1554
aS'nan'
p1555
aS'nan'
p1556
aS'nan'
p1557
aS'nan'
p1558
aS'nan'
p1559
aS'nan'
p1560
aS'nan'
p1561
aS'nan'
p1562
aS'nan'
p1563
aS'nan'
p1564
aS'nan'
p1565
aS'nan'
p1566
aS'nan'
p1567
aS'nan'
p1568
aS'nan'
p1569
aS'nan'
p1570
aS'nan'
p1571
aS'nan'
p1572
aS'nan'
p1573
aS'nan'
p1574
aS'nan'
p1575
aS'nan'
p1576
aS'nan'
p1577
aS'nan'
p1578
aS'nan'
p1579
aS'nan'
p1580
aS'nan'
p1581
aS'nan'
p1582
aS'nan'
p1583
aS'nan'
p1584
aS'nan'
p1585
aS'nan'
p1586
aS'nan'
p1587
aS'nan'
p1588
aS'nan'
p1589
aS'nan'
p1590
aS'nan'
p1591
aS'nan'
p1592
aS'nan'
p1593
aS'nan'
p1594
aS'nan'
p1595
aS'nan'
p1596
aS'nan'
p1597
aS'nan'
p1598
aS'nan'
p1599
aS'nan'
p1600
aS'nan'
p1601
aS'nan'
p1602
aS'nan'
p1603
aS'nan'
p1604
aS'nan'
p1605
aS'nan'
p1606
aS'nan'
p1607
aS'nan'
p1608
aS'nan'
p1609
aS'nan'
p1610
aS'nan'
p1611
aS'nan'
p1612
aS'nan'
p1613
aS'nan'
p1614
aS'nan'
p1615
aS'nan'
p1616
aS'nan'
p1617
aS'nan'
p1618
aS'nan'
p1619
aS'nan'
p1620
aS'nan'
p1621
aS'nan'
p1622
aS'nan'
p1623
aS'nan'
p1624
aS'nan'
p1625
aS'nan'
p1626
aS'nan'
p1627
aS'nan'
p1628
aS'nan'
p1629
aS'nan'
p1630
aS'nan'
p1631
aS'nan'
p1632
aS'nan'
p1633
aS'nan'
p1634
aS'nan'
p1635
aS'nan'
p1636
aS'nan'
p1637
aS'nan'
p1638
aS'nan'
p1639
aS'nan'
p1640
aS'nan'
p1641
aS'nan'
p1642
aS'nan'
p1643
aS'nan'
p1644
aS'nan'
p1645
aS'nan'
p1646
aS'nan'
p1647
aS'nan'
p1648
aS'nan'
p1649
aS'nan'
p1650
aS'nan'
p1651
aS'nan'
p1652
aS'nan'
p1653
aS'nan'
p1654
aS'nan'
p1655
aS'nan'
p1656
aS'nan'
p1657
aS'nan'
p1658
aS'nan'
p1659
aS'nan'
p1660
aS'nan'
p1661
aS'nan'
p1662
aS'nan'
p1663
aS'nan'
p1664
asS'Messenger_total_counts'
p1665
(lp1666
F0.0
aF0.0
aF0.0
aF0.0
aF0.0
aF0.0
aF0.0
aF0.0
aF0.0
aF0.0
aF0.0
aF0.0
aF0.0
aF0.0
aF0.0
aF0.0
aF0.0
aF0.0
aF0.0
aF0.0
aF0.0
aF0.0
aF0.0
aF0.0
aF0.0
aF0.0
aF0.0
aF0.0
aF0.0
aF0.0
aF0.0
aF0.0
aF0.0
aF0.0
aF0.0
aF0.0
aF0.0
aF0.0
aF0.0
aF0.0
aF0.0
aF0.0
aF0.0
aF0.0
aF0.0
aF0.0
aF0.0
aF0.0
aF0.0
aF0.0
aF0.0
aF0.0
aF0.0
aF0.0
aF0.0
aF0.0
aF0.0
aF0.0
aF0.0
aF0.0
aF0.0
aF0.0
aF0.0
aF0.0
aF0.0
aF0.0
aF0.0
aF0.0
aF0.0
aF0.0
aF0.0
aF0.0
aF0.0
aF0.0
aF0.0
aF0.0
aF0.0
aF0.0
aF0.0
aF0.0
aF0.0
aF0.0
aF0.0
aF0.0
aF0.0
aF0.0
aF0.0
aF0.0
aF0.0
aF0.0
aF0.0
aF0.0
aF0.0
aF0.0
aF0.0
aF0.0
aF0.0
aF0.0
aF0.0
aF0.0
aF0.0
aF0.0
aF0.0
aF0.0
aF0.0
aF0.0
aF0.0
aF0.0
aF0.0
aF0.0
aF0.0
aF0.0
aF0.0
aF0.0
aF0.0
aF0.0
aF0.0
aF0.0
aF0.0
aF0.0
aF0.0
aF0.0
aF0.0
aF0.0
aF0.0
aF0.0
aF0.0
aF0.0
aF0.0
aF0.0
aF0.0
aF0.0
aF0.0
aF0.0
aF0.0
aF0.0
aF0.0
aF0.0
aF0.0
aF0.0
aF0.0
aF0.0
aF0.0
aF0.0
aF0.0
aF0.0
aF0.0
aF0.0
aF0.0
aF0.0
aF0.0
aF0.0
aF0.0
aF0.0
aF0.0
aF0.0
aF0.0
aF0.0
aF0.0
aF0.0
aF0.0
aF0.0
aF0.0
aF0.0
aF0.0
aF0.0
aF0.0
aF0.0
aF0.0
aF0.0
aF0.0
aF0.0
aF0.0
aF0.0
aF0.0
aF0.0
aF0.0
aF0.0
aF0.0
aF0.0
aF0.0
aF0.0
aF0.0
aF0.0
aF0.0
aF0.0
aF0.0
aF0.0
aF0.0
aF0.0
aF0.0
aF0.0
aF0.0
aF0.0
aF0.0
aF0.0
aF0.0
aF0.0
aF0.0
aF0.0
aF0.0
aF0.0
aF0.0
aF0.0
aF0.0
aF0.0
aF0.0
aF0.0
aF0.0
aF0.0
aF0.0
aF0.0
aF0.0
aF0.0
aF0.0
assS'Data_properties'
p1667
(dp1668
S'QL_images'
p1669
(lp1670
S'nan'
p1671
aS'nan'
p1672
aS'nan'
p1673
aS'nan'
p1674
aS'nan'
p1675
aS'nan'
p1676
aS'nan'
p1677
aS'nan'
p1678
aS'nan'
p1679
aS'nan'
p1680
aS'nan'
p1681
aS'nan'
p1682
aS'nan'
p1683
aS'nan'
p1684
aS'nan'
p1685
aS'nan'
p1686
aS'nan'
p1687
aS'nan'
p1688
aS'nan'
p1689
aS'nan'
p1690
aS'nan'
p1691
aS'nan'
p1692
aS'nan'
p1693
aS'nan'
p1694
aS'nan'
p1695
aS'nan'
p1696
aS'nan'
p1697
aS'nan'
p1698
aS'nan'
p1699
aS'nan'
p1700
aS'nan'
p1701
aS'nan'
p1702
aS'nan'
p1703
aS'nan'
p1704
aS'nan'
p1705
aS'nan'
p1706
aS'nan'
p1707
aS'nan'
p1708
aS'nan'
p1709
aS'nan'
p1710
aS'nan'
p1711
aS'nan'
p1712
aS'nan'
p1713
aS'nan'
p1714
aS'nan'
p1715
aS'nan'
p1716
aS'nan'
p1717
aS'nan'
p1718
aS'nan'
p1719
aS'nan'
p1720
aS'nan'
p1721
aS'nan'
p1722
aS'nan'
p1723
aS'nan'
p1724
aS'nan'
p1725
aS'nan'
p1726
aS'nan'
p1727
aS'nan'
p1728
aS'nan'
p1729
aS'nan'
p1730
aS'nan'
p1731
aS'nan'
p1732
aS'nan'
p1733
aS'nan'
p1734
aS'nan'
p1735
aS'nan'
p1736
aS'nan'
p1737
aS'nan'
p1738
aS'nan'
p1739
aS'nan'
p1740
aS'nan'
p1741
aS'nan'
p1742
aS'nan'
p1743
aS'nan'
p1744
aS'nan'
p1745
aS'nan'
p1746
aS'nan'
p1747
aS'nan'
p1748
aS'nan'
p1749
aS'nan'
p1750
aS'nan'
p1751
aS'nan'
p1752
aS'nan'
p1753
aS'nan'
p1754
aS'nan'
p1755
aS'nan'
p1756
aS'nan'
p1757
aS'nan'
p1758
aS'nan'
p1759
aS'nan'
p1760
aS'nan'
p1761
aS'nan'
p1762
aS'nan'
p1763
aS'nan'
p1764
aS'nan'
p1765
aS'nan'
p1766
aS'nan'
p1767
aS'nan'
p1768
aS'nan'
p1769
aS'nan'
p1770
aS'nan'
p1771
aS'nan'
p1772
aS'nan'
p1773
aS'nan'
p1774
aS'nan'
p1775
aS'nan'
p1776
aS'nan'
p1777
aS'nan'
p1778
aS'nan'
p1779
aS'nan'
p1780
aS'nan'
p1781
aS'nan'
p1782
aS'nan'
p1783
aS'nan'
p1784
aS'nan'
p1785
aS'nan'
p1786
aS'nan'
p1787
aS'nan'
p1788
aS'nan'
p1789
aS'nan'
p1790
aS'nan'
p1791
aS'nan'
p1792
aS'nan'
p1793
aS'nan'
p1794
aS'nan'
p1795
aS'nan'
p1796
aS'nan'
p1797
aS'nan'
p1798
aS'nan'
p1799
aS'nan'
p1800
aS'nan'
p1801
aS'nan'
p1802
aS'nan'
p1803
aS'nan'
p1804
aS'nan'
p1805
aS'nan'
p1806
aS'nan'
p1807
aS'nan'
p1808
aS'nan'
p1809
aS'nan'
p1810
aS'nan'
p1811
aS'nan'
p1812
aS'nan'
p1813
aS'nan'
p1814
aS'nan'
p1815
aS'nan'
p1816
aS'nan'
p1817
aS'nan'
p1818
aS'nan'
p1819
aS'nan'
p1820
aS'nan'
p1821
aS'nan'
p1822
aS'nan'
p1823
aS'nan'
p1824
aS'nan'
p1825
aS'nan'
p1826
aS'nan'
p1827
aS'nan'
p1828
aS'nan'
p1829
aS'nan'
p1830
aS'nan'
p1831
aS'nan'
p1832
aS'nan'
p1833
aS'nan'
p1834
aS'nan'
p1835
aS'nan'
p1836
aS'nan'
p1837
aS'nan'
p1838
aS'nan'
p1839
aS'nan'
p1840
aS'nan'
p1841
aS'nan'
p1842
aS'nan'
p1843
aS'nan'
p1844
aS'nan'
p1845
aS'nan'
p1846
aS'nan'
p1847
aS'nan'
p1848
aS'nan'
p1849
aS'nan'
p1850
aS'nan'
p1851
aS'nan'
p1852
aS'nan'
p1853
aS'nan'
p1854
aS'nan'
p1855
aS'nan'
p1856
aS'nan'
p1857
aS'nan'
p1858
aS'nan'
p1859
aS'nan'
p1860
aS'nan'
p1861
aS'nan'
p1862
aS'nan'
p1863
aS'nan'
p1864
aS'nan'
p1865
aS'nan'
p1866
aS'nan'
p1867
aS'nan'
p1868
aS'nan'
p1869
aS'nan'
p1870
aS'nan'
p1871
aS'nan'
p1872
aS'nan'
p1873
aS'nan'
p1874
aS'nan'
p1875
aS'nan'
p1876
aS'nan'
p1877
aS'nan'
p1878
aS'nan'
p1879
aS'nan'
p1880
aS'nan'
p1881
aS'nan'
p1882
aS'nan'
p1883
aS'nan'
p1884
aS'nan'
p1885
asS'Messenger_data_path'
p1886
(lp1887
S'/Users/wheatley/Documents/Solar/occulted_flares/data/dat_files'
p1888
aS'/Users/wheatley/Documents/Solar/occulted_flares/data/dat_files'
p1889
aS'/Users/wheatley/Documents/Solar/occulted_flares/data/dat_files'
p1890
aS'/Users/wheatley/Documents/Solar/occulted_flares/data/dat_files'
p1891
aS'/Users/wheatley/Documents/Solar/occulted_flares/data/dat_files'
p1892
aS'/Users/wheatley/Documents/Solar/occulted_flares/data/dat_files'
p1893
aS'/Users/wheatley/Documents/Solar/occulted_flares/data/dat_files'
p1894
aS'/Users/wheatley/Documents/Solar/occulted_flares/data/dat_files'
p1895
aS'/Users/wheatley/Documents/Solar/occulted_flares/data/dat_files'
p1896
aS'/Users/wheatley/Documents/Solar/occulted_flares/data/dat_files'
p1897
aS'/Users/wheatley/Documents/Solar/occulted_flares/data/dat_files'
p1898
aS'/Users/wheatley/Documents/Solar/occulted_flares/data/dat_files'
p1899
aS'/Users/wheatley/Documents/Solar/occulted_flares/data/dat_files'
p1900
aS'/Users/wheatley/Documents/Solar/occulted_flares/data/dat_files'
p1901
aS'/Users/wheatley/Documents/Solar/occulted_flares/data/dat_files'
p1902
aS'/Users/wheatley/Documents/Solar/occulted_flares/data/dat_files'
p1903
aS'/Users/wheatley/Documents/Solar/occulted_flares/data/dat_files'
p1904
aS'/Users/wheatley/Documents/Solar/occulted_flares/data/dat_files'
p1905
aS'/Users/wheatley/Documents/Solar/occulted_flares/data/dat_files'
p1906
aS'/Users/wheatley/Documents/Solar/occulted_flares/data/dat_files'
p1907
aS'/Users/wheatley/Documents/Solar/occulted_flares/data/dat_files'
p1908
aS'/Users/wheatley/Documents/Solar/occulted_flares/data/dat_files'
p1909
aS'/Users/wheatley/Documents/Solar/occulted_flares/data/dat_files'
p1910
aS'/Users/wheatley/Documents/Solar/occulted_flares/data/dat_files'
p1911
aS'/Users/wheatley/Documents/Solar/occulted_flares/data/dat_files'
p1912
aS'/Users/wheatley/Documents/Solar/occulted_flares/data/dat_files'
p1913
aS'/Users/wheatley/Documents/Solar/occulted_flares/data/dat_files'
p1914
aS'/Users/wheatley/Documents/Solar/occulted_flares/data/dat_files'
p1915
aS'/Users/wheatley/Documents/Solar/occulted_flares/data/dat_files'
p1916
aS'/Users/wheatley/Documents/Solar/occulted_flares/data/dat_files'
p1917
aS'/Users/wheatley/Documents/Solar/occulted_flares/data/dat_files'
p1918
aS'/Users/wheatley/Documents/Solar/occulted_flares/data/dat_files'
p1919
aS'/Users/wheatley/Documents/Solar/occulted_flares/data/dat_files'
p1920
aS'/Users/wheatley/Documents/Solar/occulted_flares/data/dat_files'
p1921
aS'/Users/wheatley/Documents/Solar/occulted_flares/data/dat_files'
p1922
aS'/Users/wheatley/Documents/Solar/occulted_flares/data/dat_files'
p1923
aS'/Users/wheatley/Documents/Solar/occulted_flares/data/dat_files'
p1924
aS'/Users/wheatley/Documents/Solar/occulted_flares/data/dat_files'
p1925
aS'/Users/wheatley/Documents/Solar/occulted_flares/data/dat_files'
p1926
aS'/Users/wheatley/Documents/Solar/occulted_flares/data/dat_files'
p1927
aS'/Users/wheatley/Documents/Solar/occulted_flares/data/dat_files'
p1928
aS'/Users/wheatley/Documents/Solar/occulted_flares/data/dat_files'
p1929
aS'/Users/wheatley/Documents/Solar/occulted_flares/data/dat_files'
p1930
aS'/Users/wheatley/Documents/Solar/occulted_flares/data/dat_files'
p1931
aS'/Users/wheatley/Documents/Solar/occulted_flares/data/dat_files'
p1932
aS'/Users/wheatley/Documents/Solar/occulted_flares/data/dat_files'
p1933
aS'/Users/wheatley/Documents/Solar/occulted_flares/data/dat_files'
p1934
aS'/Users/wheatley/Documents/Solar/occulted_flares/data/dat_files'
p1935
aS'/Users/wheatley/Documents/Solar/occulted_flares/data/dat_files'
p1936
aS'/Users/wheatley/Documents/Solar/occulted_flares/data/dat_files'
p1937
aS'/Users/wheatley/Documents/Solar/occulted_flares/data/dat_files'
p1938
aS'/Users/wheatley/Documents/Solar/occulted_flares/data/dat_files'
p1939
aS'/Users/wheatley/Documents/Solar/occulted_flares/data/dat_files'
p1940
aS'/Users/wheatley/Documents/Solar/occulted_flares/data/dat_files'
p1941
aS'/Users/wheatley/Documents/Solar/occulted_flares/data/dat_files'
p1942
aS'/Users/wheatley/Documents/Solar/occulted_flares/data/dat_files'
p1943
aS'/Users/wheatley/Documents/Solar/occulted_flares/data/dat_files'
p1944
aS'/Users/wheatley/Documents/Solar/occulted_flares/data/dat_files'
p1945
aS'/Users/wheatley/Documents/Solar/occulted_flares/data/dat_files'
p1946
aS'/Users/wheatley/Documents/Solar/occulted_flares/data/dat_files'
p1947
aS'/Users/wheatley/Documents/Solar/occulted_flares/data/dat_files'
p1948
aS'/Users/wheatley/Documents/Solar/occulted_flares/data/dat_files'
p1949
aS'/Users/wheatley/Documents/Solar/occulted_flares/data/dat_files'
p1950
aS'/Users/wheatley/Documents/Solar/occulted_flares/data/dat_files'
p1951
aS'/Users/wheatley/Documents/Solar/occulted_flares/data/dat_files'
p1952
aS'/Users/wheatley/Documents/Solar/occulted_flares/data/dat_files'
p1953
aS'/Users/wheatley/Documents/Solar/occulted_flares/data/dat_files'
p1954
aS'/Users/wheatley/Documents/Solar/occulted_flares/data/dat_files'
p1955
aS'/Users/wheatley/Documents/Solar/occulted_flares/data/dat_files'
p1956
aS'/Users/wheatley/Documents/Solar/occulted_flares/data/dat_files'
p1957
aS'/Users/wheatley/Documents/Solar/occulted_flares/data/dat_files'
p1958
aS'/Users/wheatley/Documents/Solar/occulted_flares/data/dat_files'
p1959
aS'/Users/wheatley/Documents/Solar/occulted_flares/data/dat_files'
p1960
aS'/Users/wheatley/Documents/Solar/occulted_flares/data/dat_files'
p1961
aS'/Users/wheatley/Documents/Solar/occulted_flares/data/dat_files'
p1962
aS'/Users/wheatley/Documents/Solar/occulted_flares/data/dat_files'
p1963
aS'/Users/wheatley/Documents/Solar/occulted_flares/data/dat_files'
p1964
aS'/Users/wheatley/Documents/Solar/occulted_flares/data/dat_files'
p1965
aS'/Users/wheatley/Documents/Solar/occulted_flares/data/dat_files'
p1966
aS'/Users/wheatley/Documents/Solar/occulted_flares/data/dat_files'
p1967
aS'/Users/wheatley/Documents/Solar/occulted_flares/data/dat_files'
p1968
aS'/Users/wheatley/Documents/Solar/occulted_flares/data/dat_files'
p1969
aS'/Users/wheatley/Documents/Solar/occulted_flares/data/dat_files'
p1970
aS'/Users/wheatley/Documents/Solar/occulted_flares/data/dat_files'
p1971
aS'/Users/wheatley/Documents/Solar/occulted_flares/data/dat_files'
p1972
aS'/Users/wheatley/Documents/Solar/occulted_flares/data/dat_files'
p1973
aS'/Users/wheatley/Documents/Solar/occulted_flares/data/dat_files'
p1974
aS'/Users/wheatley/Documents/Solar/occulted_flares/data/dat_files'
p1975
aS'/Users/wheatley/Documents/Solar/occulted_flares/data/dat_files'
p1976
aS'/Users/wheatley/Documents/Solar/occulted_flares/data/dat_files'
p1977
aS'/Users/wheatley/Documents/Solar/occulted_flares/data/dat_files'
p1978
aS'/Users/wheatley/Documents/Solar/occulted_flares/data/dat_files'
p1979
aS'/Users/wheatley/Documents/Solar/occulted_flares/data/dat_files'
p1980
aS'/Users/wheatley/Documents/Solar/occulted_flares/data/dat_files'
p1981
aS'/Users/wheatley/Documents/Solar/occulted_flares/data/dat_files'
p1982
aS'/Users/wheatley/Documents/Solar/occulted_flares/data/dat_files'
p1983
aS'/Users/wheatley/Documents/Solar/occulted_flares/data/dat_files'
p1984
aS'/Users/wheatley/Documents/Solar/occulted_flares/data/dat_files'
p1985
aS'/Users/wheatley/Documents/Solar/occulted_flares/data/dat_files'
p1986
aS'/Users/wheatley/Documents/Solar/occulted_flares/data/dat_files'
p1987
aS'/Users/wheatley/Documents/Solar/occulted_flares/data/dat_files'
p1988
aS'/Users/wheatley/Documents/Solar/occulted_flares/data/dat_files'
p1989
aS'/Users/wheatley/Documents/Solar/occulted_flares/data/dat_files'
p1990
aS'/Users/wheatley/Documents/Solar/occulted_flares/data/dat_files'
p1991
aS'/Users/wheatley/Documents/Solar/occulted_flares/data/dat_files'
p1992
aS'/Users/wheatley/Documents/Solar/occulted_flares/data/dat_files'
p1993
aS'/Users/wheatley/Documents/Solar/occulted_flares/data/dat_files'
p1994
aS'/Users/wheatley/Documents/Solar/occulted_flares/data/dat_files'
p1995
aS'/Users/wheatley/Documents/Solar/occulted_flares/data/dat_files'
p1996
aS'/Users/wheatley/Documents/Solar/occulted_flares/data/dat_files'
p1997
aS'/Users/wheatley/Documents/Solar/occulted_flares/data/dat_files'
p1998
aS'/Users/wheatley/Documents/Solar/occulted_flares/data/dat_files'
p1999
aS'/Users/wheatley/Documents/Solar/occulted_flares/data/dat_files'
p2000
aS'/Users/wheatley/Documents/Solar/occulted_flares/data/dat_files'
p2001
aS'/Users/wheatley/Documents/Solar/occulted_flares/data/dat_files'
p2002
aS'/Users/wheatley/Documents/Solar/occulted_flares/data/dat_files'
p2003
aS'/Users/wheatley/Documents/Solar/occulted_flares/data/dat_files'
p2004
aS'/Users/wheatley/Documents/Solar/occulted_flares/data/dat_files'
p2005
aS'/Users/wheatley/Documents/Solar/occulted_flares/data/dat_files'
p2006
aS'/Users/wheatley/Documents/Solar/occulted_flares/data/dat_files'
p2007
aS'/Users/wheatley/Documents/Solar/occulted_flares/data/dat_files'
p2008
aS'/Users/wheatley/Documents/Solar/occulted_flares/data/dat_files'
p2009
aS'/Users/wheatley/Documents/Solar/occulted_flares/data/dat_files'
p2010
aS'/Users/wheatley/Documents/Solar/occulted_flares/data/dat_files'
p2011
aS'/Users/wheatley/Documents/Solar/occulted_flares/data/dat_files'
p2012
aS'/Users/wheatley/Documents/Solar/occulted_flares/data/dat_files'
p2013
aS'/Users/wheatley/Documents/Solar/occulted_flares/data/dat_files'
p2014
aS'/Users/wheatley/Documents/Solar/occulted_flares/data/dat_files'
p2015
aS'/Users/wheatley/Documents/Solar/occulted_flares/data/dat_files'
p2016
aS'/Users/wheatley/Documents/Solar/occulted_flares/data/dat_files'
p2017
aS'/Users/wheatley/Documents/Solar/occulted_flares/data/dat_files'
p2018
aS'/Users/wheatley/Documents/Solar/occulted_flares/data/dat_files'
p2019
aS'/Users/wheatley/Documents/Solar/occulted_flares/data/dat_files'
p2020
aS'/Users/wheatley/Documents/Solar/occulted_flares/data/dat_files'
p2021
aS'/Users/wheatley/Documents/Solar/occulted_flares/data/dat_files'
p2022
aS'/Users/wheatley/Documents/Solar/occulted_flares/data/dat_files'
p2023
aS'/Users/wheatley/Documents/Solar/occulted_flares/data/dat_files'
p2024
aS'/Users/wheatley/Documents/Solar/occulted_flares/data/dat_files'
p2025
aS'/Users/wheatley/Documents/Solar/occulted_flares/data/dat_files'
p2026
aS'/Users/wheatley/Documents/Solar/occulted_flares/data/dat_files'
p2027
aS'/Users/wheatley/Documents/Solar/occulted_flares/data/dat_files'
p2028
aS'/Users/wheatley/Documents/Solar/occulted_flares/data/dat_files'
p2029
aS'/Users/wheatley/Documents/Solar/occulted_flares/data/dat_files'
p2030
aS'/Users/wheatley/Documents/Solar/occulted_flares/data/dat_files'
p2031
aS'/Users/wheatley/Documents/Solar/occulted_flares/data/dat_files'
p2032
aS'/Users/wheatley/Documents/Solar/occulted_flares/data/dat_files'
p2033
aS'/Users/wheatley/Documents/Solar/occulted_flares/data/dat_files'
p2034
aS'/Users/wheatley/Documents/Solar/occulted_flares/data/dat_files'
p2035
aS'/Users/wheatley/Documents/Solar/occulted_flares/data/dat_files'
p2036
aS'/Users/wheatley/Documents/Solar/occulted_flares/data/dat_files'
p2037
aS'/Users/wheatley/Documents/Solar/occulted_flares/data/dat_files'
p2038
aS'/Users/wheatley/Documents/Solar/occulted_flares/data/dat_files'
p2039
aS'/Users/wheatley/Documents/Solar/occulted_flares/data/dat_files'
p2040
aS'/Users/wheatley/Documents/Solar/occulted_flares/data/dat_files'
p2041
aS'/Users/wheatley/Documents/Solar/occulted_flares/data/dat_files'
p2042
aS'/Users/wheatley/Documents/Solar/occulted_flares/data/dat_files'
p2043
aS'/Users/wheatley/Documents/Solar/occulted_flares/data/dat_files'
p2044
aS'/Users/wheatley/Documents/Solar/occulted_flares/data/dat_files'
p2045
aS'/Users/wheatley/Documents/Solar/occulted_flares/data/dat_files'
p2046
aS'/Users/wheatley/Documents/Solar/occulted_flares/data/dat_files'
p2047
aS'/Users/wheatley/Documents/Solar/occulted_flares/data/dat_files'
p2048
aS'/Users/wheatley/Documents/Solar/occulted_flares/data/dat_files'
p2049
aS'/Users/wheatley/Documents/Solar/occulted_flares/data/dat_files'
p2050
aS'/Users/wheatley/Documents/Solar/occulted_flares/data/dat_files'
p2051
aS'/Users/wheatley/Documents/Solar/occulted_flares/data/dat_files'
p2052
aS'/Users/wheatley/Documents/Solar/occulted_flares/data/dat_files'
p2053
aS'/Users/wheatley/Documents/Solar/occulted_flares/data/dat_files'
p2054
aS'/Users/wheatley/Documents/Solar/occulted_flares/data/dat_files'
p2055
aS'/Users/wheatley/Documents/Solar/occulted_flares/data/dat_files'
p2056
aS'/Users/wheatley/Documents/Solar/occulted_flares/data/dat_files'
p2057
aS'/Users/wheatley/Documents/Solar/occulted_flares/data/dat_files'
p2058
aS'/Users/wheatley/Documents/Solar/occulted_flares/data/dat_files'
p2059
aS'/Users/wheatley/Documents/Solar/occulted_flares/data/dat_files'
p2060
aS'/Users/wheatley/Documents/Solar/occulted_flares/data/dat_files'
p2061
aS'/Users/wheatley/Documents/Solar/occulted_flares/data/dat_files'
p2062
aS'/Users/wheatley/Documents/Solar/occulted_flares/data/dat_files'
p2063
aS'/Users/wheatley/Documents/Solar/occulted_flares/data/dat_files'
p2064
aS'/Users/wheatley/Documents/Solar/occulted_flares/data/dat_files'
p2065
aS'/Users/wheatley/Documents/Solar/occulted_flares/data/dat_files'
p2066
aS'/Users/wheatley/Documents/Solar/occulted_flares/data/dat_files'
p2067
aS'/Users/wheatley/Documents/Solar/occulted_flares/data/dat_files'
p2068
aS'/Users/wheatley/Documents/Solar/occulted_flares/data/dat_files'
p2069
aS'/Users/wheatley/Documents/Solar/occulted_flares/data/dat_files'
p2070
aS'/Users/wheatley/Documents/Solar/occulted_flares/data/dat_files'
p2071
aS'/Users/wheatley/Documents/Solar/occulted_flares/data/dat_files'
p2072
aS'/Users/wheatley/Documents/Solar/occulted_flares/data/dat_files'
p2073
aS'/Users/wheatley/Documents/Solar/occulted_flares/data/dat_files'
p2074
aS'/Users/wheatley/Documents/Solar/occulted_flares/data/dat_files'
p2075
aS'/Users/wheatley/Documents/Solar/occulted_flares/data/dat_files'
p2076
aS'/Users/wheatley/Documents/Solar/occulted_flares/data/dat_files'
p2077
aS'/Users/wheatley/Documents/Solar/occulted_flares/data/dat_files'
p2078
aS'/Users/wheatley/Documents/Solar/occulted_flares/data/dat_files'
p2079
aS'/Users/wheatley/Documents/Solar/occulted_flares/data/dat_files'
p2080
aS'/Users/wheatley/Documents/Solar/occulted_flares/data/dat_files'
p2081
aS'/Users/wheatley/Documents/Solar/occulted_flares/data/dat_files'
p2082
aS'/Users/wheatley/Documents/Solar/occulted_flares/data/dat_files'
p2083
aS'/Users/wheatley/Documents/Solar/occulted_flares/data/dat_files'
p2084
aS'/Users/wheatley/Documents/Solar/occulted_flares/data/dat_files'
p2085
aS'/Users/wheatley/Documents/Solar/occulted_flares/data/dat_files'
p2086
aS'/Users/wheatley/Documents/Solar/occulted_flares/data/dat_files'
p2087
aS'/Users/wheatley/Documents/Solar/occulted_flares/data/dat_files'
p2088
aS'/Users/wheatley/Documents/Solar/occulted_flares/data/dat_files'
p2089
aS'/Users/wheatley/Documents/Solar/occulted_flares/data/dat_files'
p2090
aS'/Users/wheatley/Documents/Solar/occulted_flares/data/dat_files'
p2091
aS'/Users/wheatley/Documents/Solar/occulted_flares/data/dat_files'
p2092
aS'/Users/wheatley/Documents/Solar/occulted_flares/data/dat_files'
p2093
aS'/Users/wheatley/Documents/Solar/occulted_flares/data/dat_files'
p2094
aS'/Users/wheatley/Documents/Solar/occulted_flares/data/dat_files'
p2095
aS'/Users/wheatley/Documents/Solar/occulted_flares/data/dat_files'
p2096
aS'/Users/wheatley/Documents/Solar/occulted_flares/data/dat_files'
p2097
aS'/Users/wheatley/Documents/Solar/occulted_flares/data/dat_files'
p2098
aS'/Users/wheatley/Documents/Solar/occulted_flares/data/dat_files'
p2099
aS'/Users/wheatley/Documents/Solar/occulted_flares/data/dat_files'
p2100
aS'/Users/wheatley/Documents/Solar/occulted_flares/data/dat_files'
p2101
aS'/Users/wheatley/Documents/Solar/occulted_flares/data/dat_files'
p2102
asS'csv_name'
p2103
cnumpy.core.multiarray
_reconstruct
p2104
(cnumpy
ndarray
p2105
(I0
tp2106
S'b'
p2107
tp2108
Rp2109
(I1
(I215
tp2110
cnumpy
dtype
p2111
(S'S23'
p2112
I0
I1
tp2113
Rp2114
(I3
S'|'
p2115
NNNI23
I1
I0
tp2116
bI00
S'list_fixed_fit_high.csvlist_fixed_fit_high.csvlist_fixed_fit_high.csvlist_fixed_fit_high.csvlist_fixed_fit_high.csvlist_fixed_fit_high.csvlist_fixed_fit_high.csvlist_fixed_fit_high.csvlist_fixed_fit_high.csvlist_fixed_fit_high.csvlist_fixed_fit_high.csvlist_fixed_fit_high.csvlist_fixed_fit_high.csvlist_fixed_fit_high.csvlist_fixed_fit_high.csvlist_fixed_fit_high.csvlist_fixed_fit_high.csvlist_fixed_fit_high.csvlist_fixed_fit_high.csvlist_fixed_fit_high.csvlist_fixed_fit_high.csvlist_fixed_fit_high.csvlist_fixed_fit_high.csvlist_fixed_fit_high.csvlist_fixed_fit_high.csvlist_fixed_fit_high.csvlist_fixed_fit_high.csvlist_fixed_fit_high.csvlist_fixed_fit_high.csvlist_fixed_fit_high.csvlist_fixed_fit_high.csvlist_fixed_fit_high.csvlist_fixed_fit_high.csvlist_fixed_fit_high.csvlist_fixed_fit_high.csvlist_fixed_fit_high.csvlist_fixed_fit_high.csvlist_fixed_fit_high.csvlist_fixed_fit_high.csvlist_fixed_fit_high.csvlist_fixed_fit_high.csvlist_fixed_fit_high.csvlist_fixed_fit_high.csvlist_fixed_fit_high.csvlist_fixed_fit_high.csvlist_fixed_fit_high.csvlist_fixed_fit_high.csvlist_fixed_fit_high.csvlist_fixed_fit_high.csvlist_fixed_fit_high.csvlist_fixed_fit_high.csvlist_fixed_fit_high.csvlist_fixed_fit_high.csvlist_fixed_fit_high.csvlist_fixed_fit_high.csvlist_fixed_fit_high.csvlist_fixed_fit_high.csvlist_fixed_fit_high.csvlist_fixed_fit_high.csvlist_fixed_fit_high.csvlist_fixed_fit_high.csvlist_fixed_fit_high.csvlist_fixed_fit_high.csvlist_fixed_fit_high.csvlist_fixed_fit_high.csvlist_fixed_fit_high.csvlist_fixed_fit_high.csvlist_fixed_fit_high.csvlist_fixed_fit_high.csvlist_fixed_fit_high.csvlist_fixed_fit_high.csvlist_fixed_fit_high.csvlist_fixed_fit_high.csvlist_fixed_fit_high.csvlist_fixed_fit_high.csvlist_fixed_fit_high.csvlist_fixed_fit_high.csvlist_fixed_fit_high.csvlist_fixed_fit_high.csvlist_fixed_fit_high.csvlist_fixed_fit_high.csvlist_fixed_fit_high.csvlist_fixed_fit_high.csvlist_fixed_fit_high.csvlist_fixed_fit_high.csvlist_fixed_fit_high.csvlist_fixed_fit_high.csvlist_fixed_fit_high.csvlist_fixed_fit_high.csvlist_fixed_fit_high.csvlist_fixed_fit_high.csvlist_fixed_fit_high.csvlist_fixed_fit_high.csvlist_fixed_fit_high.csvlist_fixed_fit_high.csvlist_fixed_fit_high.csvlist_fixed_fit_high.csvlist_fixed_fit_high.csvlist_fixed_fit_high.csvlist_fixed_fit_high.csvlist_fixed_fit_high.csvlist_fixed_fit_high.csvlist_fixed_fit_high.csvlist_fixed_fit_high.csvlist_fixed_fit_high.csvlist_fixed_fit_high.csvlist_fixed_fit_high.csvlist_fixed_fit_high.csvlist_fixed_fit_high.csvlist_fixed_fit_high.csvlist_fixed_fit_high.csvlist_fixed_fit_high.csvlist_fixed_fit_high.csvlist_fixed_fit_high.csvlist_fixed_fit_high.csvlist_fixed_fit_high.csvlist_fixed_fit_high.csvlist_fixed_fit_high.csvlist_fixed_fit_high.csvlist_fixed_fit_high.csvlist_fixed_fit_high.csvlist_fixed_fit_high.csvlist_fixed_fit_high.csvlist_fixed_fit_high.csvlist_fixed_fit_high.csvlist_fixed_fit_high.csvlist_fixed_fit_high.csvlist_fixed_fit_high.csvlist_fixed_fit_high.csvlist_fixed_fit_high.csvlist_fixed_fit_high.csvlist_fixed_fit_high.csvlist_fixed_fit_high.csvlist_fixed_fit_high.csvlist_fixed_fit_high.csvlist_fixed_fit_high.csvlist_fixed_fit_high.csvlist_fixed_fit_high.csvlist_fixed_fit_high.csvlist_fixed_fit_high.csvlist_fixed_fit_high.csvlist_fixed_fit_high.csvlist_fixed_fit_high.csvlist_fixed_fit_high.csvlist_fixed_fit_high.csvlist_fixed_fit_high.csvlist_fixed_fit_high.csvlist_fixed_fit_high.csvlist_fixed_fit_high.csvlist_fixed_fit_high.csvlist_fixed_fit_high.csvlist_fixed_fit_high.csvlist_fixed_fit_high.csvlist_fixed_fit_high.csvlist_fixed_fit_high.csvlist_fixed_fit_high.csvlist_fixed_fit_high.csvlist_fixed_fit_high.csvlist_fixed_fit_high.csvlist_fixed_fit_high.csvlist_fixed_fit_high.csvlist_fixed_fit_high.csvlist_fixed_fit_high.csvlist_fixed_fit_high.csvlist_fixed_fit_high.csvlist_fixed_fit_high.csvlist_fixed_fit_high.csvlist_fixed_fit_high.csvlist_fixed_fit_high.csvlist_fixed_fit_high.csvlist_fixed_fit_high.csvlist_fixed_fit_high.csvlist_fixed_fit_high.csvlist_fixed_fit_high.csvlist_fixed_fit_high.csvlist_fixed_fit_high.csvlist_fixed_fit_high.csvlist_fixed_fit_high.csvlist_fixed_fit_high.csvlist_fixed_fit_high.csvlist_fixed_fit_high.csvlist_fixed_fit_high.csvlist_fixed_fit_high.csvlist_fixed_fit_high.csvlist_fixed_fit_high.csvlist_fixed_fit_high.csvlist_fixed_fit_high.csvlist_fixed_fit_high.csvlist_fixed_fit_high.csvlist_fixed_fit_high.csvlist_fixed_fit_high.csvlist_fixed_fit_high.csvlist_fixed_fit_high.csvlist_fixed_fit_high.csvlist_fixed_fit_high.csvlist_fixed_fit_high.csvlist_fixed_fit_high.csvlist_fixed_fit_high.csvlist_fixed_fit_high.csvlist_fixed_fit_high.csvlist_fixed_fit_high.csvlist_fixed_fit_high.csvlist_fixed_fit_high.csvlist_fixed_fit_high.csvlist_fixed_fit_high.csvlist_fixed_fit_high.csvlist_fixed_fit_high.csvlist_fixed_fit_high.csvlist_fixed_fit_high.csvlist_fixed_fit_high.csvlist_fixed_fit_high.csvlist_fixed_fit_high.csvlist_fixed_fit_high.csvlist_fixed_fit_high.csvlist_fixed_fit_high.csv'
p2117
tp2118
bsS'RHESSI_data_path'
p2119
(lp2120
S'/Users/wheatley/Documents/Solar/occulted_flares/data/'
p2121
aS'/Users/wheatley/Documents/Solar/occulted_flares/data/'
p2122
aS'/Users/wheatley/Documents/Solar/occulted_flares/data/'
p2123
aS'/Users/wheatley/Documents/Solar/occulted_flares/data/'
p2124
aS'/Users/wheatley/Documents/Solar/occulted_flares/data/'
p2125
aS'/Users/wheatley/Documents/Solar/occulted_flares/data/'
p2126
aS'/Users/wheatley/Documents/Solar/occulted_flares/data/'
p2127
aS'/Users/wheatley/Documents/Solar/occulted_flares/data/'
p2128
aS'/Users/wheatley/Documents/Solar/occulted_flares/data/'
p2129
aS'/Users/wheatley/Documents/Solar/occulted_flares/data/'
p2130
aS'/Users/wheatley/Documents/Solar/occulted_flares/data/'
p2131
aS'/Users/wheatley/Documents/Solar/occulted_flares/data/'
p2132
aS'/Users/wheatley/Documents/Solar/occulted_flares/data/'
p2133
aS'/Users/wheatley/Documents/Solar/occulted_flares/data/'
p2134
aS'/Users/wheatley/Documents/Solar/occulted_flares/data/'
p2135
aS'/Users/wheatley/Documents/Solar/occulted_flares/data/'
p2136
aS'/Users/wheatley/Documents/Solar/occulted_flares/data/'
p2137
aS'/Users/wheatley/Documents/Solar/occulted_flares/data/'
p2138
aS'/Users/wheatley/Documents/Solar/occulted_flares/data/'
p2139
aS'/Users/wheatley/Documents/Solar/occulted_flares/data/'
p2140
aS'/Users/wheatley/Documents/Solar/occulted_flares/data/'
p2141
aS'/Users/wheatley/Documents/Solar/occulted_flares/data/'
p2142
aS'/Users/wheatley/Documents/Solar/occulted_flares/data/'
p2143
aS'/Users/wheatley/Documents/Solar/occulted_flares/data/'
p2144
aS'/Users/wheatley/Documents/Solar/occulted_flares/data/'
p2145
aS'/Users/wheatley/Documents/Solar/occulted_flares/data/'
p2146
aS'/Users/wheatley/Documents/Solar/occulted_flares/data/'
p2147
aS'/Users/wheatley/Documents/Solar/occulted_flares/data/'
p2148
aS'/Users/wheatley/Documents/Solar/occulted_flares/data/'
p2149
aS'/Users/wheatley/Documents/Solar/occulted_flares/data/'
p2150
aS'/Users/wheatley/Documents/Solar/occulted_flares/data/'
p2151
aS'/Users/wheatley/Documents/Solar/occulted_flares/data/'
p2152
aS'/Users/wheatley/Documents/Solar/occulted_flares/data/'
p2153
aS'/Users/wheatley/Documents/Solar/occulted_flares/data/'
p2154
aS'/Users/wheatley/Documents/Solar/occulted_flares/data/'
p2155
aS'/Users/wheatley/Documents/Solar/occulted_flares/data/'
p2156
aS'/Users/wheatley/Documents/Solar/occulted_flares/data/'
p2157
aS'/Users/wheatley/Documents/Solar/occulted_flares/data/'
p2158
aS'/Users/wheatley/Documents/Solar/occulted_flares/data/'
p2159
aS'/Users/wheatley/Documents/Solar/occulted_flares/data/'
p2160
aS'/Users/wheatley/Documents/Solar/occulted_flares/data/'
p2161
aS'/Users/wheatley/Documents/Solar/occulted_flares/data/'
p2162
aS'/Users/wheatley/Documents/Solar/occulted_flares/data/'
p2163
aS'/Users/wheatley/Documents/Solar/occulted_flares/data/'
p2164
aS'/Users/wheatley/Documents/Solar/occulted_flares/data/'
p2165
aS'/Users/wheatley/Documents/Solar/occulted_flares/data/'
p2166
aS'/Users/wheatley/Documents/Solar/occulted_flares/data/'
p2167
aS'/Users/wheatley/Documents/Solar/occulted_flares/data/'
p2168
aS'/Users/wheatley/Documents/Solar/occulted_flares/data/'
p2169
aS'/Users/wheatley/Documents/Solar/occulted_flares/data/'
p2170
aS'/Users/wheatley/Documents/Solar/occulted_flares/data/'
p2171
aS'/Users/wheatley/Documents/Solar/occulted_flares/data/'
p2172
aS'/Users/wheatley/Documents/Solar/occulted_flares/data/'
p2173
aS'/Users/wheatley/Documents/Solar/occulted_flares/data/'
p2174
aS'/Users/wheatley/Documents/Solar/occulted_flares/data/'
p2175
aS'/Users/wheatley/Documents/Solar/occulted_flares/data/'
p2176
aS'/Users/wheatley/Documents/Solar/occulted_flares/data/'
p2177
aS'/Users/wheatley/Documents/Solar/occulted_flares/data/'
p2178
aS'/Users/wheatley/Documents/Solar/occulted_flares/data/'
p2179
aS'/Users/wheatley/Documents/Solar/occulted_flares/data/'
p2180
aS'/Users/wheatley/Documents/Solar/occulted_flares/data/'
p2181
aS'/Users/wheatley/Documents/Solar/occulted_flares/data/'
p2182
aS'/Users/wheatley/Documents/Solar/occulted_flares/data/'
p2183
aS'/Users/wheatley/Documents/Solar/occulted_flares/data/'
p2184
aS'/Users/wheatley/Documents/Solar/occulted_flares/data/'
p2185
aS'/Users/wheatley/Documents/Solar/occulted_flares/data/'
p2186
aS'/Users/wheatley/Documents/Solar/occulted_flares/data/'
p2187
aS'/Users/wheatley/Documents/Solar/occulted_flares/data/'
p2188
aS'/Users/wheatley/Documents/Solar/occulted_flares/data/'
p2189
aS'/Users/wheatley/Documents/Solar/occulted_flares/data/'
p2190
aS'/Users/wheatley/Documents/Solar/occulted_flares/data/'
p2191
aS'/Users/wheatley/Documents/Solar/occulted_flares/data/'
p2192
aS'/Users/wheatley/Documents/Solar/occulted_flares/data/'
p2193
aS'/Users/wheatley/Documents/Solar/occulted_flares/data/'
p2194
aS'/Users/wheatley/Documents/Solar/occulted_flares/data/'
p2195
aS'/Users/wheatley/Documents/Solar/occulted_flares/data/'
p2196
aS'/Users/wheatley/Documents/Solar/occulted_flares/data/'
p2197
aS'/Users/wheatley/Documents/Solar/occulted_flares/data/'
p2198
aS'/Users/wheatley/Documents/Solar/occulted_flares/data/'
p2199
aS'/Users/wheatley/Documents/Solar/occulted_flares/data/'
p2200
aS'/Users/wheatley/Documents/Solar/occulted_flares/data/'
p2201
aS'/Users/wheatley/Documents/Solar/occulted_flares/data/'
p2202
aS'/Users/wheatley/Documents/Solar/occulted_flares/data/'
p2203
aS'/Users/wheatley/Documents/Solar/occulted_flares/data/'
p2204
aS'/Users/wheatley/Documents/Solar/occulted_flares/data/'
p2205
aS'/Users/wheatley/Documents/Solar/occulted_flares/data/'
p2206
aS'/Users/wheatley/Documents/Solar/occulted_flares/data/'
p2207
aS'/Users/wheatley/Documents/Solar/occulted_flares/data/'
p2208
aS'/Users/wheatley/Documents/Solar/occulted_flares/data/'
p2209
aS'/Users/wheatley/Documents/Solar/occulted_flares/data/'
p2210
aS'/Users/wheatley/Documents/Solar/occulted_flares/data/'
p2211
aS'/Users/wheatley/Documents/Solar/occulted_flares/data/'
p2212
aS'/Users/wheatley/Documents/Solar/occulted_flares/data/'
p2213
aS'/Users/wheatley/Documents/Solar/occulted_flares/data/'
p2214
aS'/Users/wheatley/Documents/Solar/occulted_flares/data/'
p2215
aS'/Users/wheatley/Documents/Solar/occulted_flares/data/'
p2216
aS'/Users/wheatley/Documents/Solar/occulted_flares/data/'
p2217
aS'/Users/wheatley/Documents/Solar/occulted_flares/data/'
p2218
aS'/Users/wheatley/Documents/Solar/occulted_flares/data/'
p2219
aS'/Users/wheatley/Documents/Solar/occulted_flares/data/'
p2220
aS'/Users/wheatley/Documents/Solar/occulted_flares/data/'
p2221
aS'/Users/wheatley/Documents/Solar/occulted_flares/data/'
p2222
aS'/Users/wheatley/Documents/Solar/occulted_flares/data/'
p2223
aS'/Users/wheatley/Documents/Solar/occulted_flares/data/'
p2224
aS'/Users/wheatley/Documents/Solar/occulted_flares/data/'
p2225
aS'/Users/wheatley/Documents/Solar/occulted_flares/data/'
p2226
aS'/Users/wheatley/Documents/Solar/occulted_flares/data/'
p2227
aS'/Users/wheatley/Documents/Solar/occulted_flares/data/'
p2228
aS'/Users/wheatley/Documents/Solar/occulted_flares/data/'
p2229
aS'/Users/wheatley/Documents/Solar/occulted_flares/data/'
p2230
aS'/Users/wheatley/Documents/Solar/occulted_flares/data/'
p2231
aS'/Users/wheatley/Documents/Solar/occulted_flares/data/'
p2232
aS'/Users/wheatley/Documents/Solar/occulted_flares/data/'
p2233
aS'/Users/wheatley/Documents/Solar/occulted_flares/data/'
p2234
aS'/Users/wheatley/Documents/Solar/occulted_flares/data/'
p2235
aS'/Users/wheatley/Documents/Solar/occulted_flares/data/'
p2236
aS'/Users/wheatley/Documents/Solar/occulted_flares/data/'
p2237
aS'/Users/wheatley/Documents/Solar/occulted_flares/data/'
p2238
aS'/Users/wheatley/Documents/Solar/occulted_flares/data/'
p2239
aS'/Users/wheatley/Documents/Solar/occulted_flares/data/'
p2240
aS'/Users/wheatley/Documents/Solar/occulted_flares/data/'
p2241
aS'/Users/wheatley/Documents/Solar/occulted_flares/data/'
p2242
aS'/Users/wheatley/Documents/Solar/occulted_flares/data/'
p2243
aS'/Users/wheatley/Documents/Solar/occulted_flares/data/'
p2244
aS'/Users/wheatley/Documents/Solar/occulted_flares/data/'
p2245
aS'/Users/wheatley/Documents/Solar/occulted_flares/data/'
p2246
aS'/Users/wheatley/Documents/Solar/occulted_flares/data/'
p2247
aS'/Users/wheatley/Documents/Solar/occulted_flares/data/'
p2248
aS'/Users/wheatley/Documents/Solar/occulted_flares/data/'
p2249
aS'/Users/wheatley/Documents/Solar/occulted_flares/data/'
p2250
aS'/Users/wheatley/Documents/Solar/occulted_flares/data/'
p2251
aS'/Users/wheatley/Documents/Solar/occulted_flares/data/'
p2252
aS'/Users/wheatley/Documents/Solar/occulted_flares/data/'
p2253
aS'/Users/wheatley/Documents/Solar/occulted_flares/data/'
p2254
aS'/Users/wheatley/Documents/Solar/occulted_flares/data/'
p2255
aS'/Users/wheatley/Documents/Solar/occulted_flares/data/'
p2256
aS'/Users/wheatley/Documents/Solar/occulted_flares/data/'
p2257
aS'/Users/wheatley/Documents/Solar/occulted_flares/data/'
p2258
aS'/Users/wheatley/Documents/Solar/occulted_flares/data/'
p2259
aS'/Users/wheatley/Documents/Solar/occulted_flares/data/'
p2260
aS'/Users/wheatley/Documents/Solar/occulted_flares/data/'
p2261
aS'/Users/wheatley/Documents/Solar/occulted_flares/data/'
p2262
aS'/Users/wheatley/Documents/Solar/occulted_flares/data/'
p2263
aS'/Users/wheatley/Documents/Solar/occulted_flares/data/'
p2264
aS'/Users/wheatley/Documents/Solar/occulted_flares/data/'
p2265
aS'/Users/wheatley/Documents/Solar/occulted_flares/data/'
p2266
aS'/Users/wheatley/Documents/Solar/occulted_flares/data/'
p2267
aS'/Users/wheatley/Documents/Solar/occulted_flares/data/'
p2268
aS'/Users/wheatley/Documents/Solar/occulted_flares/data/'
p2269
aS'/Users/wheatley/Documents/Solar/occulted_flares/data/'
p2270
aS'/Users/wheatley/Documents/Solar/occulted_flares/data/'
p2271
aS'/Users/wheatley/Documents/Solar/occulted_flares/data/'
p2272
aS'/Users/wheatley/Documents/Solar/occulted_flares/data/'
p2273
aS'/Users/wheatley/Documents/Solar/occulted_flares/data/'
p2274
aS'/Users/wheatley/Documents/Solar/occulted_flares/data/'
p2275
aS'/Users/wheatley/Documents/Solar/occulted_flares/data/'
p2276
aS'/Users/wheatley/Documents/Solar/occulted_flares/data/'
p2277
aS'/Users/wheatley/Documents/Solar/occulted_flares/data/'
p2278
aS'/Users/wheatley/Documents/Solar/occulted_flares/data/'
p2279
aS'/Users/wheatley/Documents/Solar/occulted_flares/data/'
p2280
aS'/Users/wheatley/Documents/Solar/occulted_flares/data/'
p2281
aS'/Users/wheatley/Documents/Solar/occulted_flares/data/'
p2282
aS'/Users/wheatley/Documents/Solar/occulted_flares/data/'
p2283
aS'/Users/wheatley/Documents/Solar/occulted_flares/data/'
p2284
aS'/Users/wheatley/Documents/Solar/occulted_flares/data/'
p2285
aS'/Users/wheatley/Documents/Solar/occulted_flares/data/'
p2286
aS'/Users/wheatley/Documents/Solar/occulted_flares/data/'
p2287
aS'/Users/wheatley/Documents/Solar/occulted_flares/data/'
p2288
aS'/Users/wheatley/Documents/Solar/occulted_flares/data/'
p2289
aS'/Users/wheatley/Documents/Solar/occulted_flares/data/'
p2290
aS'/Users/wheatley/Documents/Solar/occulted_flares/data/'
p2291
aS'/Users/wheatley/Documents/Solar/occulted_flares/data/'
p2292
aS'/Users/wheatley/Documents/Solar/occulted_flares/data/'
p2293
aS'/Users/wheatley/Documents/Solar/occulted_flares/data/'
p2294
aS'/Users/wheatley/Documents/Solar/occulted_flares/data/'
p2295
aS'/Users/wheatley/Documents/Solar/occulted_flares/data/'
p2296
aS'/Users/wheatley/Documents/Solar/occulted_flares/data/'
p2297
aS'/Users/wheatley/Documents/Solar/occulted_flares/data/'
p2298
aS'/Users/wheatley/Documents/Solar/occulted_flares/data/'
p2299
aS'/Users/wheatley/Documents/Solar/occulted_flares/data/'
p2300
aS'/Users/wheatley/Documents/Solar/occulted_flares/data/'
p2301
aS'/Users/wheatley/Documents/Solar/occulted_flares/data/'
p2302
aS'/Users/wheatley/Documents/Solar/occulted_flares/data/'
p2303
aS'/Users/wheatley/Documents/Solar/occulted_flares/data/'
p2304
aS'/Users/wheatley/Documents/Solar/occulted_flares/data/'
p2305
aS'/Users/wheatley/Documents/Solar/occulted_flares/data/'
p2306
aS'/Users/wheatley/Documents/Solar/occulted_flares/data/'
p2307
aS'/Users/wheatley/Documents/Solar/occulted_flares/data/'
p2308
aS'/Users/wheatley/Documents/Solar/occulted_flares/data/'
p2309
aS'/Users/wheatley/Documents/Solar/occulted_flares/data/'
p2310
aS'/Users/wheatley/Documents/Solar/occulted_flares/data/'
p2311
aS'/Users/wheatley/Documents/Solar/occulted_flares/data/'
p2312
aS'/Users/wheatley/Documents/Solar/occulted_flares/data/'
p2313
aS'/Users/wheatley/Documents/Solar/occulted_flares/data/'
p2314
aS'/Users/wheatley/Documents/Solar/occulted_flares/data/'
p2315
aS'/Users/wheatley/Documents/Solar/occulted_flares/data/'
p2316
aS'/Users/wheatley/Documents/Solar/occulted_flares/data/'
p2317
aS'/Users/wheatley/Documents/Solar/occulted_flares/data/'
p2318
aS'/Users/wheatley/Documents/Solar/occulted_flares/data/'
p2319
aS'/Users/wheatley/Documents/Solar/occulted_flares/data/'
p2320
aS'/Users/wheatley/Documents/Solar/occulted_flares/data/'
p2321
aS'/Users/wheatley/Documents/Solar/occulted_flares/data/'
p2322
aS'/Users/wheatley/Documents/Solar/occulted_flares/data/'
p2323
aS'/Users/wheatley/Documents/Solar/occulted_flares/data/'
p2324
aS'/Users/wheatley/Documents/Solar/occulted_flares/data/'
p2325
aS'/Users/wheatley/Documents/Solar/occulted_flares/data/'
p2326
aS'/Users/wheatley/Documents/Solar/occulted_flares/data/'
p2327
aS'/Users/wheatley/Documents/Solar/occulted_flares/data/'
p2328
aS'/Users/wheatley/Documents/Solar/occulted_flares/data/'
p2329
aS'/Users/wheatley/Documents/Solar/occulted_flares/data/'
p2330
aS'/Users/wheatley/Documents/Solar/occulted_flares/data/'
p2331
aS'/Users/wheatley/Documents/Solar/occulted_flares/data/'
p2332
aS'/Users/wheatley/Documents/Solar/occulted_flares/data/'
p2333
aS'/Users/wheatley/Documents/Solar/occulted_flares/data/'
p2334
aS'/Users/wheatley/Documents/Solar/occulted_flares/data/'
p2335
asS'RHESSI_browser_urls'
p2336
(lp2337
S'nan'
p2338
aS'nan'
p2339
aS'nan'
p2340
aS'nan'
p2341
aS'nan'
p2342
aS'nan'
p2343
aS'nan'
p2344
aS'nan'
p2345
aS'nan'
p2346
aS'nan'
p2347
aS'nan'
p2348
aS'nan'
p2349
aS'nan'
p2350
aS'nan'
p2351
aS'nan'
p2352
aS'nan'
p2353
aS'nan'
p2354
aS'nan'
p2355
aS'nan'
p2356
aS'nan'
p2357
aS'nan'
p2358
aS'nan'
p2359
aS'nan'
p2360
aS'nan'
p2361
aS'nan'
p2362
aS'nan'
p2363
aS'nan'
p2364
aS'nan'
p2365
aS'nan'
p2366
aS'nan'
p2367
aS'nan'
p2368
aS'nan'
p2369
aS'nan'
p2370
aS'nan'
p2371
aS'nan'
p2372
aS'nan'
p2373
aS'nan'
p2374
aS'nan'
p2375
aS'nan'
p2376
aS'nan'
p2377
aS'nan'
p2378
aS'nan'
p2379
aS'nan'
p2380
aS'nan'
p2381
aS'nan'
p2382
aS'nan'
p2383
aS'nan'
p2384
aS'nan'
p2385
aS'nan'
p2386
aS'nan'
p2387
aS'nan'
p2388
aS'nan'
p2389
aS'nan'
p2390
aS'nan'
p2391
aS'nan'
p2392
aS'nan'
p2393
aS'nan'
p2394
aS'nan'
p2395
aS'nan'
p2396
aS'nan'
p2397
aS'nan'
p2398
aS'nan'
p2399
aS'nan'
p2400
aS'nan'
p2401
aS'nan'
p2402
aS'nan'
p2403
aS'nan'
p2404
aS'nan'
p2405
aS'nan'
p2406
aS'nan'
p2407
aS'nan'
p2408
aS'nan'
p2409
aS'nan'
p2410
aS'nan'
p2411
aS'nan'
p2412
aS'nan'
p2413
aS'nan'
p2414
aS'nan'
p2415
aS'nan'
p2416
aS'nan'
p2417
aS'nan'
p2418
aS'nan'
p2419
aS'nan'
p2420
aS'nan'
p2421
aS'nan'
p2422
aS'nan'
p2423
aS'nan'
p2424
aS'nan'
p2425
aS'nan'
p2426
aS'nan'
p2427
aS'nan'
p2428
aS'nan'
p2429
aS'nan'
p2430
aS'nan'
p2431
aS'nan'
p2432
aS'nan'
p2433
aS'nan'
p2434
aS'nan'
p2435
aS'nan'
p2436
aS'nan'
p2437
aS'nan'
p2438
aS'nan'
p2439
aS'nan'
p2440
aS'nan'
p2441
aS'nan'
p2442
aS'nan'
p2443
aS'nan'
p2444
aS'nan'
p2445
aS'nan'
p2446
aS'nan'
p2447
aS'nan'
p2448
aS'nan'
p2449
aS'nan'
p2450
aS'nan'
p2451
aS'nan'
p2452
aS'nan'
p2453
aS'nan'
p2454
aS'nan'
p2455
aS'nan'
p2456
aS'nan'
p2457
aS'nan'
p2458
aS'nan'
p2459
aS'nan'
p2460
aS'nan'
p2461
aS'nan'
p2462
aS'nan'
p2463
aS'nan'
p2464
aS'nan'
p2465
aS'nan'
p2466
aS'nan'
p2467
aS'nan'
p2468
aS'nan'
p2469
aS'nan'
p2470
aS'nan'
p2471
aS'nan'
p2472
aS'nan'
p2473
aS'nan'
p2474
aS'nan'
p2475
aS'nan'
p2476
aS'nan'
p2477
aS'nan'
p2478
aS'nan'
p2479
aS'nan'
p2480
aS'nan'
p2481
aS'nan'
p2482
aS'nan'
p2483
aS'nan'
p2484
aS'nan'
p2485
aS'nan'
p2486
aS'nan'
p2487
aS'nan'
p2488
aS'nan'
p2489
aS'nan'
p2490
aS'nan'
p2491
aS'nan'
p2492
aS'nan'
p2493
aS'nan'
p2494
aS'nan'
p2495
aS'nan'
p2496
aS'nan'
p2497
aS'nan'
p2498
aS'nan'
p2499
aS'nan'
p2500
aS'nan'
p2501
aS'nan'
p2502
aS'nan'
p2503
aS'nan'
p2504
aS'nan'
p2505
aS'nan'
p2506
aS'nan'
p2507
aS'nan'
p2508
aS'nan'
p2509
aS'nan'
p2510
aS'nan'
p2511
aS'nan'
p2512
aS'nan'
p2513
aS'nan'
p2514
aS'nan'
p2515
aS'nan'
p2516
aS'nan'
p2517
aS'nan'
p2518
aS'nan'
p2519
aS'nan'
p2520
aS'nan'
p2521
aS'nan'
p2522
aS'nan'
p2523
aS'nan'
p2524
aS'nan'
p2525
aS'nan'
p2526
aS'nan'
p2527
aS'nan'
p2528
aS'nan'
p2529
aS'nan'
p2530
aS'nan'
p2531
aS'nan'
p2532
aS'nan'
p2533
aS'nan'
p2534
aS'nan'
p2535
aS'nan'
p2536
aS'nan'
p2537
aS'nan'
p2538
aS'nan'
p2539
aS'nan'
p2540
aS'nan'
p2541
aS'nan'
p2542
aS'nan'
p2543
aS'nan'
p2544
aS'nan'
p2545
aS'nan'
p2546
aS'nan'
p2547
aS'nan'
p2548
aS'nan'
p2549
aS'nan'
p2550
aS'nan'
p2551
aS'nan'
p2552
asS'XRS_files'
p2553
(lp2554
S'/xrs2007150'
p2555
aS'/xrs2007153'
p2556
aS'/xrs2007154'
p2557
aS'/xrs2007191'
p2558
aS'/xrs2010037'
p2559
aS'/xrs2010039'
p2560
aS'/xrs2010307'
p2561
aS'/xrs2010310'
p2562
aS'/xrs2011045'
p2563
aS'/xrs2011045'
p2564
aS'/xrs2011045'
p2565
aS'/xrs2011050'
p2566
aS'/xrs2011050'
p2567
aS'/xrs2011050'
p2568
aS'/xrs2011050'
p2569
aS'/xrs2011055'
p2570
aS'/xrs2011065'
p2571
aS'/xrs2011106'
p2572
aS'/xrs2011112'
p2573
aS'/xrs2011112'
p2574
aS'/xrs2011209'
p2575
aS'/xrs2011220'
p2576
aS'/xrs2011221'
p2577
aS'/xrs2011221'
p2578
aS'/xrs2011253'
p2579
aS'/xrs2011256'
p2580
aS'/xrs2011259'
p2581
aS'/xrs2011262'
p2582
aS'/xrs2011263'
p2583
aS'/xrs2011263'
p2584
aS'/xrs2011264'
p2585
aS'/xrs2011268'
p2586
aS'/xrs2011268'
p2587
aS'/xrs2011268'
p2588
aS'/xrs2011268'
p2589
aS'/xrs2011268'
p2590
aS'/xrs2011268'
p2591
aS'/xrs2011268'
p2592
aS'/xrs2011268'
p2593
aS'/xrs2011268'
p2594
aS'/xrs2011268'
p2595
aS'/xrs2011268'
p2596
aS'/xrs2011268'
p2597
aS'/xrs2011272'
p2598
aS'/xrs2011273'
p2599
aS'/xrs2011273'
p2600
aS'/xrs2011290'
p2601
aS'/xrs2011290'
p2602
aS'/xrs2011307'
p2603
aS'/xrs2011310'
p2604
aS'/xrs2011319'
p2605
aS'/xrs2011347'
p2606
aS'/xrs2011359'
p2607
aS'/xrs2011359'
p2608
aS'/xrs2011359'
p2609
aS'/xrs2011360'
p2610
aS'/xrs2011361'
p2611
aS'/xrs2011364'
p2612
aS'/xrs2011364'
p2613
aS'/xrs2012011'
p2614
aS'/xrs2012016'
p2615
aS'/xrs2012073'
p2616
aS'/xrs2012083'
p2617
aS'/xrs2012083'
p2618
aS'/xrs2012083'
p2619
aS'/xrs2012083'
p2620
aS'/xrs2012118'
p2621
aS'/xrs2012128'
p2622
aS'/xrs2012134'
p2623
aS'/xrs2012146'
p2624
aS'/xrs2012177'
p2625
aS'/xrs2012177'
p2626
aS'/xrs2012181'
p2627
aS'/xrs2012181'
p2628
aS'/xrs2012181'
p2629
aS'/xrs2012183'
p2630
aS'/xrs2012183'
p2631
aS'/xrs2012183'
p2632
aS'/xrs2012183'
p2633
aS'/xrs2012190'
p2634
aS'/xrs2012190'
p2635
aS'/xrs2012190'
p2636
aS'/xrs2012190'
p2637
aS'/xrs2012191'
p2638
aS'/xrs2012191'
p2639
aS'/xrs2012192'
p2640
aS'/xrs2012192'
p2641
aS'/xrs2012192'
p2642
aS'/xrs2012192'
p2643
aS'/xrs2012192'
p2644
aS'/xrs2012192'
p2645
aS'/xrs2012192'
p2646
aS'/xrs2012192'
p2647
aS'/xrs2012192'
p2648
aS'/xrs2012192'
p2649
aS'/xrs2012198'
p2650
aS'/xrs2012199'
p2651
aS'/xrs2012199'
p2652
aS'/xrs2012199'
p2653
aS'/xrs2012199'
p2654
aS'/xrs2012199'
p2655
aS'/xrs2012199'
p2656
aS'/xrs2012199'
p2657
aS'/xrs2012201'
p2658
aS'/xrs2012206'
p2659
aS'/xrs2012209'
p2660
aS'/xrs2012210'
p2661
aS'/xrs2012211'
p2662
aS'/xrs2012212'
p2663
aS'/xrs2012212'
p2664
aS'/xrs2012212'
p2665
aS'/xrs2012213'
p2666
aS'/xrs2012222'
p2667
aS'/xrs2012222'
p2668
aS'/xrs2012223'
p2669
aS'/xrs2012223'
p2670
aS'/xrs2012224'
p2671
aS'/xrs2012232'
p2672
aS'/xrs2012245'
p2673
aS'/xrs2012245'
p2674
aS'/xrs2012245'
p2675
aS'/xrs2012250'
p2676
aS'/xrs2012250'
p2677
aS'/xrs2012251'
p2678
aS'/xrs2012256'
p2679
aS'/xrs2012256'
p2680
aS'/xrs2012256'
p2681
aS'/xrs2012256'
p2682
aS'/xrs2012261'
p2683
aS'/xrs2012261'
p2684
aS'/xrs2012274'
p2685
aS'/xrs2012274'
p2686
aS'/xrs2012275'
p2687
aS'/xrs2012281'
p2688
aS'/xrs2012281'
p2689
aS'/xrs2012289'
p2690
aS'/xrs2012291'
p2691
aS'/xrs2012293'
p2692
aS'/xrs2012293'
p2693
aS'/xrs2012294'
p2694
aS'/xrs2012295'
p2695
aS'/xrs2012295'
p2696
aS'/xrs2012295'
p2697
aS'/xrs2012295'
p2698
aS'/xrs2012295'
p2699
aS'/xrs2012296'
p2700
aS'/xrs2012296'
p2701
aS'/xrs2012296'
p2702
aS'/xrs2012296'
p2703
aS'/xrs2012297'
p2704
aS'/xrs2012297'
p2705
aS'/xrs2012312'
p2706
aS'/xrs2012312'
p2707
aS'/xrs2012312'
p2708
aS'/xrs2012312'
p2709
aS'/xrs2012316'
p2710
aS'/xrs2012318'
p2711
aS'/xrs2012320'
p2712
aS'/xrs2012320'
p2713
aS'/xrs2012323'
p2714
aS'/xrs2012325'
p2715
aS'/xrs2012325'
p2716
aS'/xrs2012326'
p2717
aS'/xrs2012326'
p2718
aS'/xrs2012326'
p2719
aS'/xrs2012332'
p2720
aS'/xrs2012332'
p2721
aS'/xrs2012333'
p2722
aS'/xrs2012333'
p2723
aS'/xrs2012334'
p2724
aS'/xrs2013009'
p2725
aS'/xrs2013074'
p2726
aS'/xrs2013074'
p2727
aS'/xrs2013077'
p2728
aS'/xrs2013077'
p2729
aS'/xrs2013079'
p2730
aS'/xrs2013079'
p2731
aS'/xrs2013101'
p2732
aS'/xrs2013101'
p2733
aS'/xrs2013101'
p2734
aS'/xrs2013102'
p2735
aS'/xrs2013108'
p2736
aS'/xrs2013112'
p2737
aS'/xrs2013113'
p2738
aS'/xrs2013115'
p2739
aS'/xrs2013115'
p2740
aS'/xrs2013116'
p2741
aS'/xrs2013116'
p2742
aS'/xrs2013117'
p2743
aS'/xrs2013117'
p2744
aS'/xrs2013117'
p2745
aS'/xrs2013119'
p2746
aS'/xrs2013119'
p2747
aS'/xrs2013120'
p2748
aS'/xrs2013121'
p2749
aS'/xrs2013121'
p2750
aS'/xrs2013123'
p2751
aS'/xrs2013124'
p2752
aS'/xrs2013129'
p2753
aS'/xrs2013136'
p2754
aS'/xrs2013138'
p2755
aS'/xrs2013138'
p2756
aS'/xrs2013138'
p2757
aS'/xrs2013139'
p2758
aS'/xrs2013139'
p2759
aS'/xrs2013139'
p2760
aS'/xrs2013142'
p2761
aS'/xrs2013143'
p2762
aS'/xrs2013151'
p2763
aS'/xrs2013154'
p2764
aS'/xrs2013154'
p2765
aS'/xrs2013170'
p2766
aS'/xrs2013170'
p2767
aS'/xrs2013179'
p2768
aS'/xrs2013184'
p2769
assS'ID'
p2770
(lp2771
I7053005
aI7060208
aI7060304
aI7071024
aI10020621
aI10020855
aI10110321
aI10110640
aI11021464
aI11021439
aI11021465
aI11021908
aI11021975
aI11021935
aI11021937
aI11022407
aI11030656
aI11041649
aI11042276
aI11042235
aI11072842
aI11080832
aI11080927
aI11080927
aI11091009
aI11091327
aI11091670
aI11091951
aI11092032
aI11092066
aI110921100
aI11092515
aI11092517
aI11092520
aI11092520
aI11092520
aI11092521
aI11092524
aI11092524
aI11092562
aI11092562
aI11092549
aI11092537
aI11092930
aI11093009
aI11093035
aI11101717
aI11101717
aI11110332
aI11110640
aI11111536
aI11121368
aI11122512
aI11122524
aI11122525
aI11122643
aI11122744
aI11123058
aI11123041
aI12011110
aI12011632
aI12031302
aI12032316
aI12032335
aI12032319
aI12032321
aI12042719
aI120507104
aI12051307
aI12052537
aI12062521
aI12062512
aI12062905
aI12062966
aI12062922
aI12070139
aI12070141
aI12070143
aI12070152
aI12070832
aI12070834
aI12070851
aI12070855
aI12070965
aI12070993
aI12071011
aI12071011
aI12071013
aI12071023
aI12071023
aI12071027
aI12071027
aI12071065
aI12071031
aI12071068
aI12071673
aI12071768
aI12071728
aI12071728
aI12071728
aI12071771
aI12071771
aI12071771
aI12071911
aI12072411
aI12072748
aI12072831
aI12072918
aI12073020
aI12073018
aI12073022
aI12073140
aI12080932
aI12080935
aI12081011
aI12081051
aI12081106
aI12081918
aI12090162
aI12090163
aI12090164
aI12090625
aI12090638
aI12090720
aI12091251
aI12091224
aI12091225
aI12091227
aI12091702
aI12091706
aI12093033
aI12093033
aI12100165
aI12100707
aI12100708
aI12101508
aI12101714
aI12101924
aI12101925
aI12102024
aI12102105
aI12102106
aI12102107
aI12102125
aI12102126
aI12102229
aI12102230
aI12102234
aI12102240
aI12102309
aI12102310
aI12110705
aI12110706
aI12110717
aI12110718
aI12111105
aI12111320
aI12111515
aI12111516
aI12111806
aI12112036
aI12112037
aI12112122
aI12112123
aI12112144
aI12112773
aI12112783
aI12112839
aI12112864
aI12112927
aI13010922
aI13031505
aI13031507
aI13031810
aI13031811
aI13032002
aI13032034
aI13041107
aI13041107
aI13041112
aI13041256
aI13041825
aI13042246
aI13042352
aI13042586
aI13042586
aI13042624
aI13042624
aI13042736
aI13042740
aI13042748
aI13042928
aI13042965
aI13043023
aI13050122
aI13050122
aI13050351
aI13050406
aI13050933
aI13051642
aI13051830
aI13051830
aI13051831
aI13051943
aI13051948
aI13051948
aI13052208
aI13052343
aI13053114
aI13060316
aI13060317
aI13061914
aI13061915
aI13062808
aI13070301
asb.