ccopy_reg
_reconstructor
p0
(cdata_management
Data_Study
p1
c__builtin__
object
p2
Ntp3
Rp4
(dp5
S'Angle'
p6
(lp7
F62.5033742485
aF102.01550077440001
aF133.0923154385
aF146.2802277132
aF10.094243967999999
aF154.96428177389998
aF80.2310816255
aF55.6681840311
aF53.9908660599
aF37.484395367
aF159.7936381842
aF159.7936381842
aF164.8324335209
aF117.75073854969999
aF111.98855587950001
aF109.98330036629999
aF64.3809442274
aF88.6081465828
aF110.9274144242
aF110.9274144242
aF155.1475396664
asS'Notes'
p8
(lp9
S'nan'
p10
aS'nan'
p11
aS'nan'
p12
aS'nan'
p13
aS'nan'
p14
aS'nan'
p15
aS'nan'
p16
aS'nan'
p17
aS'nan'
p18
aS'nan'
p19
aS'nan'
p20
aS'nan'
p21
aS'nan'
p22
aS'nan'
p23
aS'nan'
p24
aS'nan'
p25
aS'nan'
p26
aS'nan'
p27
aS'nan'
p28
aS'nan'
p29
aS'nan'
p30
asS'Datetimes'
p31
(dp32
S'Obs_start_time'
p33
(lp34
cdatetime
datetime
p35
(S'\x07\xd7\x05\x1e\x0e\x037\x00\x00\x00'
p36
tp37
Rp38
ag35
(S'\x07\xda\x0b\x03\x0c\x13\x04\x00\x00\x00'
p39
tp40
Rp41
ag35
(S'\x07\xdb\t\x15\x0c#,\x00\x00\x00'
p42
tp43
Rp44
ag35
(S'\x07\xdb\t\x19\n-\x03\x00\x00\x00'
p45
tp46
Rp47
ag35
(S'\x07\xdc\x03\x17\x1300\x00\x00\x00'
p48
tp49
Rp50
ag35
(S'\x07\xdc\x05\x19\x16\x15\x11\x00\x00\x00'
p51
tp52
Rp53
ag35
(S'\x07\xdc\x06\x19\x12!.\x00\x00\x00'
p54
tp55
Rp56
ag35
(S'\x07\xdc\x07\x08\x12#\x0c\x00\x00\x00'
p57
tp58
Rp59
ag35
(S'\x07\xdc\x07\t\x16\x13\x10\x00\x00\x00'
p60
tp61
Rp62
ag35
(S'\x07\xdc\x07\x13\x05)!\x00\x00\x00'
p63
tp64
Rp65
ag35
(S'\x07\xdc\t\x0c\x056:\x00\x00\x00'
p66
tp67
Rp68
ag35
(S'\x07\xdc\t\x0c\n\x18:\x00\x00\x00'
p69
tp70
Rp71
ag35
(S'\x07\xdc\t\x11\x06\x16$\x00\x00\x00'
p72
tp73
Rp74
ag35
(S'\x07\xdc\n\x11\x08\x05/\x00\x00\x00'
p75
tp76
Rp77
ag35
(S'\x07\xdc\n\x14\x12\x167\x00\x00\x00'
p78
tp79
Rp80
ag35
(S'\x07\xdc\n\x15\x05 9\x00\x00\x00'
p81
tp82
Rp83
ag35
(S'\x07\xdc\x0b\x07\x0c$\x1c\x00\x00\x00'
p84
tp85
Rp86
ag35
(S'\x07\xdd\x04\x12\x12\x120\x00\x00\x00'
p87
tp88
Rp89
ag35
(S'\x07\xdd\x04\x1b\n6(\x00\x00\x00'
p90
tp91
Rp92
ag35
(S'\x07\xdd\x04\x1b\x0f\x0e(\x00\x00\x00'
p93
tp94
Rp95
ag35
(S'\x07\xdd\x05\t\x10%4\x00\x00\x00'
p96
tp97
Rp98
asS'Obs_end_time'
p99
(lp100
g35
(S'\x07\xd7\x05\x1e\x0e\x04\x0b\x00\x00\x00'
p101
tp102
Rp103
ag35
(S'\x07\xda\x0b\x03\x0c\x13\x14\x00\x00\x00'
p104
tp105
Rp106
ag35
(S'\x07\xdb\t\x15\x0c$\x00\x00\x00\x00'
p107
tp108
Rp109
ag35
(S'\x07\xdb\t\x19\n-\x13\x00\x00\x00'
p110
tp111
Rp112
ag35
(S'\x07\xdc\x03\x17\x131\x04\x00\x00\x00'
p113
tp114
Rp115
ag35
(S'\x07\xdc\x05\x19\x16\x15!\x00\x00\x00'
p116
tp117
Rp118
ag35
(S'\x07\xdc\x06\x19\x12"\x02\x00\x00\x00'
p119
tp120
Rp121
ag35
(S'\x07\xdc\x07\x08\x12#\x1c\x00\x00\x00'
p122
tp123
Rp124
ag35
(S'\x07\xdc\x07\t\x16\x13 \x00\x00\x00'
p125
tp126
Rp127
ag35
(S'\x07\xdc\x07\x13\x05)1\x00\x00\x00'
p128
tp129
Rp130
ag35
(S'\x07\xdc\t\x0c\x057\x0e\x00\x00\x00'
p131
tp132
Rp133
ag35
(S'\x07\xdc\t\x0c\n\x19\x0e\x00\x00\x00'
p134
tp135
Rp136
ag35
(S'\x07\xdc\t\x11\x06\x164\x00\x00\x00'
p137
tp138
Rp139
ag35
(S'\x07\xdc\n\x11\x08\x06\x03\x00\x00\x00'
p140
tp141
Rp142
ag35
(S'\x07\xdc\n\x14\x12\x17\x0b\x00\x00\x00'
p143
tp144
Rp145
ag35
(S'\x07\xdc\n\x15\x05!\r\x00\x00\x00'
p146
tp147
Rp148
ag35
(S'\x07\xdc\x0b\x07\x0c$,\x00\x00\x00'
p149
tp150
Rp151
ag35
(S'\x07\xdd\x04\x12\x12\x13\x04\x00\x00\x00'
p152
tp153
Rp154
ag35
(S'\x07\xdd\x04\x1b\n68\x00\x00\x00'
p155
tp156
Rp157
ag35
(S'\x07\xdd\x04\x1b\x0f\x0e8\x00\x00\x00'
p158
tp159
Rp160
ag35
(S'\x07\xdd\x05\t\x10&\x08\x00\x00\x00'
p161
tp162
Rp163
asS'Messenger_datetimes'
p164
(lp165
g35
(S'\x07\xd7\x05\x1e\r;:\x00\x00\x00'
p166
tp167
Rp168
ag35
(S'\x07\xda\x0b\x03\x0c\x11\x0e\x00\x00\x00'
p169
tp170
Rp171
ag35
(S'\x07\xdb\t\x15\x0c!*\x00\x00\x00'
p172
tp173
Rp174
ag35
(S'\x07\xdb\t\x19\n)\x06\x00\x00\x00'
p175
tp176
Rp177
ag35
(S'\x07\xdc\x03\x17\x13/\x0e\x00\x00\x00'
p178
tp179
Rp180
ag35
(S'\x07\xdc\x05\x19\x16\t\x1e\x00\x00\x00'
p181
tp182
Rp183
ag35
(S'\x07\xdc\x06\x19\x12!"\x00\x00\x00'
p184
tp185
Rp186
ag35
(S'\x07\xdc\x07\x08\x12\x1f\x0e\x00\x00\x00'
p187
tp188
Rp189
ag35
(S'\x07\xdc\x07\t\x16\t\x1a\x00\x00\x00'
p190
tp191
Rp192
ag35
(S'\x07\xdc\x07\x13\x05\x1d\x1e\x00\x00\x00'
p193
tp194
Rp195
ag35
(S'\x07\xdc\t\x0c\x05-.\x00\x00\x00'
p196
tp197
Rp198
ag35
(S'\x07\xdc\t\x0c\n\x15&\x00\x00\x00'
p199
tp200
Rp201
ag35
(S'\x07\xdc\t\x11\x06\x136\x00\x00\x00'
p202
tp203
Rp204
ag35
(S'\x07\xdc\n\x11\x078&\x00\x00\x00'
p205
tp206
Rp207
ag35
(S'\x07\xdc\n\x14\x12\r\x12\x00\x00\x00'
p208
tp209
Rp210
ag35
(S'\x07\xdc\n\x15\x05 \x0e\x00\x00\x00'
p211
tp212
Rp213
ag35
(S'\x07\xdc\x0b\x07\x0c!\x16\x00\x00\x00'
p214
tp215
Rp216
ag35
(S'\x07\xdd\x04\x12\x12\n\x1e\x00\x00\x00'
p217
tp218
Rp219
ag35
(S'\x07\xdd\x04\x1b\n52\x00\x00\x00'
p220
tp221
Rp222
ag35
(S'\x07\xdd\x04\x1b\x0f\x0b.\x00\x00\x00'
p223
tp224
Rp225
ag35
(S'\x07\xdd\x05\t\x10%\x1e\x00\x00\x00'
p226
tp227
Rp228
asS'RHESSI_datetimes'
p229
(lp230
g35
(S'\x07\xd7\x05\x1e\r.!\x00\x00\x00'
p231
tp232
Rp233
ag35
(S'\x07\xda\x0b\x03\x0c\x0b+\x00\x00\x00'
p234
tp235
Rp236
ag35
(S'\x07\xdb\t\x15\x0c\x08\x16\x00\x00\x00'
p237
tp238
Rp239
ag35
(S'\x07\xdb\t\x19\n\x1b*\x00\x00\x00'
p240
tp241
Rp242
ag35
(S'\x07\xdc\x03\x17\x13$\x1a\x00\x00\x00'
p243
tp244
Rp245
ag35
(S'\x07\xdc\x05\x19\x16\x17\x06\x00\x00\x00'
p246
tp247
Rp248
ag35
(S'\x07\xdc\x06\x19\x12\x0f\t\x00\x00\x00'
p249
tp250
Rp251
ag35
(S'\x07\xdc\x07\x08\x11\x1f#\x00\x00\x00'
p252
tp253
Rp254
ag35
(S'\x07\xdc\x07\t\x17\x04\x19\x00\x00\x00'
p255
tp256
Rp257
ag35
(S'\x07\xdc\x07\x13\x05\n\x01\x00\x00\x00'
p258
tp259
Rp260
ag35
(S'\x07\xdc\t\x0c\x06\n\x07\x00\x00\x00'
p261
tp262
Rp263
ag35
(S'\x07\xdc\t\x0c\x0b\n\x07\x00\x00\x00'
p264
tp265
Rp266
ag35
(S'\x07\xdc\t\x11\x06\x11-\x00\x00\x00'
p267
tp268
Rp269
ag35
(S'\x07\xdc\n\x11\x076\x10\x00\x00\x00'
p270
tp271
Rp272
ag35
(S'\x07\xdc\n\x14\x12\x07(\x00\x00\x00'
p273
tp274
Rp275
ag35
(S'\x07\xdc\n\x15\x05\x1c\x05\x00\x00\x00'
p276
tp277
Rp278
ag35
(S'\x07\xdc\x0b\x07\r\x01$\x00\x00\x00'
p279
tp280
Rp281
ag35
(S'\x07\xdd\x04\x12\x12\x07\x10\x00\x00\x00'
p282
tp283
Rp284
ag35
(S'\x07\xdd\x04\x1b\n11\x00\x00\x00'
p285
tp286
Rp287
ag35
(S'\x07\xdd\x04\x1b\x0f\t1\x00\x00\x00'
p288
tp289
Rp290
ag35
(S'\x07\xdd\x05\t\x10$\x15\x00\x00\x00'
p291
tp292
Rp293
assS'Flare_properties'
p294
(dp295
S'RHESSI_total_counts'
p296
(lp297
I0
aI0
aI0
aI0
aI0
aI0
aI0
aI0
aI0
aI0
aI0
aI0
aI0
aI0
aI0
aI0
aI0
aI0
aI0
aI0
aI0
asS'Messenger_GOES'
p298
(lp299
S'M1.4'
p300
aS'M1.4'
p301
aS'C1.9'
p302
aS'C1.3'
p303
aS'B8.1'
p304
aS'C1.1'
p305
aS'C3.6'
p306
aS'C1.2'
p307
aS'B6.4'
p308
aS'M2.3'
p309
aS'B4.7'
p310
aS'B4.7'
p311
aS'C1.5'
p312
aS'C4.0'
p313
aS'M1.3'
p314
aS'C2.8'
p315
aS'B1.5'
p316
aS'C3.4'
p317
aS'C1.2'
p318
aS'C1.2'
p319
aS'B9.2'
p320
asS'Messenger_T'
p321
(lp322
F1.223668098449707
aF1.5557674169540405
aF1.1424899101257324
aF0.883077085018158
aF1.0754929780960083
aF1.2922042608261108
aF1.1761107444763184
aF0.9706382155418396
aF0.9837979078292847
aF1.6783398389816284
aF1.0858806371688843
aF1.0858806371688843
aF1.2516287565231323
aF1.219056248664856
aF1.351859450340271
aF1.5080721378326416
aF1.0459437370300293
aF1.1889344453811646
aF1.1793535947799683
aF1.1793535947799683
aF1.336104393005371
asS'Messenger_EM1'
p323
(lp324
F0.7848951816558838
aF0.6588686108589172
aF0.10864979773759842
aF0.09616490453481674
aF0.04963767156004906
aF0.05791462957859039
aF0.20353776216506958
aF0.08525583893060684
aF0.043467484414577484
aF1.0431993007659912
aF0.028546825051307678
aF0.028546825051307678
aF0.08255631476640701
aF0.22131963074207306
aF0.6769012808799744
aF0.13622628152370453
aF0.009329629130661488
aF0.19194439053535461
aF0.0660552829504013
aF0.0660552829504013
aF0.04800063744187355
asS'RHESSI_GOES'
p325
(lp326
S'C2.0*'
p327
aS'nan'
p328
aS'C1.1'
p329
aS'nan'
p330
aS'nan'
p331
aS'C1.5*'
p332
aS'C1.5*'
p333
aS'C4.9'
p334
aS'B1.1'
p335
aS'nan'
p336
aS'nan'
p337
aS'M4.4'
p338
aS'M1.4*'
p339
aS'C3.7*'
p340
aS'C3.7*'
p341
aS'C3.7*'
p342
aS'C4.2*'
p343
aS'C1.6*'
p344
aS'C1.8'
p345
aS'nan'
p346
aS'nan'
p347
asS'source_vis'
p348
(lp349
S'Y'
p350
aS'Y'
p351
aS'Y'
p352
aS'Y'
p353
aS'Y'
p354
aS'Y'
p355
aS'Y'
p356
aS'Y'
p357
aS'Y'
p358
aS'Y'
p359
aS'Y'
p360
aS'Y'
p361
aS'Y'
p362
aS'Y'
p363
aS'Y'
p364
aS'Y'
p365
aS'Y'
p366
aS'Y'
p367
aS'Y'
p368
aS'Y'
p369
aS'Y'
p370
asS'Messenger_total_counts'
p371
(lp372
I0
aI0
aI0
aI0
aI0
aI0
aI0
aI0
aI0
aI0
aI0
aI0
aI0
aI0
aI0
aI0
aI0
aI0
aI0
aI0
aI0
assS'Data_properties'
p373
(dp374
S'QL_images'
p375
(lp376
S'http://soleil.i4ds.ch/hessidata/metadata/qlook_image_plot/2007/05/30/hsi_qlimg_7053005_012025.png'
p377
aS'http://soleil.i4ds.ch/hessidata/metadata/qlook_image_plot/2010/11/03/hsi_qlimg_10110321_012025.png'
p378
aS'http://soleil.i4ds.ch/hessidata/metadata/qlook_image_plot/2011/09/21/hsi_qlimg_110921100_012025.png'
p379
aS'http://soleil.i4ds.ch/hessidata/metadata/qlook_image_plot/2011/09/25/hsi_qlimg_11092521_012025.png'
p380
aS'http://soleil.i4ds.ch/hessidata/metadata/qlook_image_plot/2012/03/23/hsi_qlimg_12032321_012025.png'
p381
aS'http://soleil.i4ds.ch/hessidata/metadata/qlook_image_plot/2012/05/25/hsi_qlimg_12052537_012025.png'
p382
aS'http://soleil.i4ds.ch/hessidata/metadata/qlook_image_plot/2012/06/25/hsi_qlimg_12062521_012025.png'
p383
aS'http://soleil.i4ds.ch/hessidata/metadata/qlook_image_plot/2012/07/08/hsi_qlimg_12070855_012025.png'
p384
aS'http://soleil.i4ds.ch/hessidata/metadata/qlook_image_plot/2012/07/09/hsi_qlimg_12070965_012025.png'
p385
aS'http://soleil.i4ds.ch/hessidata/metadata/qlook_image_plot/2012/07/19/hsi_qlimg_12071911_012025.png'
p386
aS'http://soleil.i4ds.ch/hessidata/metadata/qlook_image_plot/2012/09/12/hsi_qlimg_12091251_012025.png'
p387
aS'http://soleil.i4ds.ch/hessidata/metadata/qlook_image_plot/2012/09/12/hsi_qlimg_12091224_012025.png'
p388
aS'http://soleil.i4ds.ch/hessidata/metadata/qlook_image_plot/2012/09/17/hsi_qlimg_12091702_012025.png'
p389
aS'http://soleil.i4ds.ch/hessidata/metadata/qlook_image_plot/2012/10/17/hsi_qlimg_12101714_012025.png'
p390
aS'http://soleil.i4ds.ch/hessidata/metadata/qlook_image_plot/2012/10/20/hsi_qlimg_12102024_012025.png'
p391
aS'http://soleil.i4ds.ch/hessidata/metadata/qlook_image_plot/2012/10/21/hsi_qlimg_12102107_012025.png'
p392
aS'http://soleil.i4ds.ch/hessidata/metadata/qlook_image_plot/2012/11/07/hsi_qlimg_12110717_012025.png'
p393
aS'http://soleil.i4ds.ch/hessidata/metadata/qlook_image_plot/2013/04/18/hsi_qlimg_13041825_012025.png'
p394
aS'http://soleil.i4ds.ch/hessidata/metadata/qlook_image_plot/2013/04/27/hsi_qlimg_13042736_012025.png'
p395
aS'http://soleil.i4ds.ch/hessidata/metadata/qlook_image_plot/2013/04/27/hsi_qlimg_13042748_012025.png'
p396
aS'http://soleil.i4ds.ch/hessidata/metadata/qlook_image_plot/2013/05/09/hsi_qlimg_13050933_012025.png'
p397
asS'Messenger_data_path'
p398
(lp399
S'/Users/wheatley/Documents/Solar/occulted_flares/data/dat_files'
p400
aS'/Users/wheatley/Documents/Solar/occulted_flares/data/dat_files'
p401
aS'/Users/wheatley/Documents/Solar/occulted_flares/data/dat_files'
p402
aS'/Users/wheatley/Documents/Solar/occulted_flares/data/dat_files'
p403
aS'/Users/wheatley/Documents/Solar/occulted_flares/data/dat_files'
p404
aS'/Users/wheatley/Documents/Solar/occulted_flares/data/dat_files'
p405
aS'/Users/wheatley/Documents/Solar/occulted_flares/data/dat_files'
p406
aS'/Users/wheatley/Documents/Solar/occulted_flares/data/dat_files'
p407
aS'/Users/wheatley/Documents/Solar/occulted_flares/data/dat_files'
p408
aS'/Users/wheatley/Documents/Solar/occulted_flares/data/dat_files'
p409
aS'/Users/wheatley/Documents/Solar/occulted_flares/data/dat_files'
p410
aS'/Users/wheatley/Documents/Solar/occulted_flares/data/dat_files'
p411
aS'/Users/wheatley/Documents/Solar/occulted_flares/data/dat_files'
p412
aS'/Users/wheatley/Documents/Solar/occulted_flares/data/dat_files'
p413
aS'/Users/wheatley/Documents/Solar/occulted_flares/data/dat_files'
p414
aS'/Users/wheatley/Documents/Solar/occulted_flares/data/dat_files'
p415
aS'/Users/wheatley/Documents/Solar/occulted_flares/data/dat_files'
p416
aS'/Users/wheatley/Documents/Solar/occulted_flares/data/dat_files'
p417
aS'/Users/wheatley/Documents/Solar/occulted_flares/data/dat_files'
p418
aS'/Users/wheatley/Documents/Solar/occulted_flares/data/dat_files'
p419
aS'/Users/wheatley/Documents/Solar/occulted_flares/data/dat_files'
p420
asS'csv_name'
p421
(lp422
S'list_short_formatted.csv'
p423
aS'list_short_formatted.csv'
p424
aS'list_short_formatted.csv'
p425
aS'list_short_formatted.csv'
p426
aS'list_short_formatted.csv'
p427
aS'list_short_formatted.csv'
p428
aS'list_short_formatted.csv'
p429
aS'list_short_formatted.csv'
p430
aS'list_short_formatted.csv'
p431
aS'list_short_formatted.csv'
p432
aS'list_short_formatted.csv'
p433
aS'list_short_formatted.csv'
p434
aS'list_short_formatted.csv'
p435
aS'list_short_formatted.csv'
p436
aS'list_short_formatted.csv'
p437
aS'list_short_formatted.csv'
p438
aS'list_short_formatted.csv'
p439
aS'list_short_formatted.csv'
p440
aS'list_short_formatted.csv'
p441
aS'list_short_formatted.csv'
p442
aS'list_short_formatted.csv'
p443
asS'RHESSI_data_path'
p444
(lp445
S'/Users/wheatley/Documents/Solar/occulted_flares/data/'
p446
aS'/Users/wheatley/Documents/Solar/occulted_flares/data/'
p447
aS'/Users/wheatley/Documents/Solar/occulted_flares/data/'
p448
aS'/Users/wheatley/Documents/Solar/occulted_flares/data/'
p449
aS'/Users/wheatley/Documents/Solar/occulted_flares/data/'
p450
aS'/Users/wheatley/Documents/Solar/occulted_flares/data/'
p451
aS'/Users/wheatley/Documents/Solar/occulted_flares/data/'
p452
aS'/Users/wheatley/Documents/Solar/occulted_flares/data/'
p453
aS'/Users/wheatley/Documents/Solar/occulted_flares/data/'
p454
aS'/Users/wheatley/Documents/Solar/occulted_flares/data/'
p455
aS'/Users/wheatley/Documents/Solar/occulted_flares/data/'
p456
aS'/Users/wheatley/Documents/Solar/occulted_flares/data/'
p457
aS'/Users/wheatley/Documents/Solar/occulted_flares/data/'
p458
aS'/Users/wheatley/Documents/Solar/occulted_flares/data/'
p459
aS'/Users/wheatley/Documents/Solar/occulted_flares/data/'
p460
aS'/Users/wheatley/Documents/Solar/occulted_flares/data/'
p461
aS'/Users/wheatley/Documents/Solar/occulted_flares/data/'
p462
aS'/Users/wheatley/Documents/Solar/occulted_flares/data/'
p463
aS'/Users/wheatley/Documents/Solar/occulted_flares/data/'
p464
aS'/Users/wheatley/Documents/Solar/occulted_flares/data/'
p465
aS'/Users/wheatley/Documents/Solar/occulted_flares/data/'
p466
asS'RHESSI_browser_urls'
p467
(lp468
S'http://sprg.ssl.berkeley.edu/~tohban/browser/?show=grth1+qlpcr+qlpg9+qli02+qli03+qli04+synff&date=20070530&time=134633'
p469
aS'http://sprg.ssl.berkeley.edu/~tohban/browser/?show=grth1+qlpcr+qlpg9+qli02+qli03+qli04+synff&date=20101103&time=121143'
p470
aS'http://sprg.ssl.berkeley.edu/~tohban/browser/?show=grth1+qlpcr+qlpg9+qli02+qli03+qli04+synff&date=20110921&time=120822'
p471
aS'http://sprg.ssl.berkeley.edu/~tohban/browser/?show=grth1+qlpcr+qlpg9+qli02+qli03+qli04+synff&date=20110925&time=102742'
p472
aS'http://sprg.ssl.berkeley.edu/~tohban/browser/?show=grth1+qlpcr+qlpg9+qli02+qli03+qli04+synff&date=20120323&time=193626'
p473
aS'http://sprg.ssl.berkeley.edu/~tohban/browser/?show=grth1+qlpcr+qlpg9+qli02+qli03+qli04+synff&date=20120525&time=222306'
p474
aS'http://sprg.ssl.berkeley.edu/~tohban/browser/?show=grth1+qlpcr+qlpg9+qli02+qli03+qli04+synff&date=20120625&time=181509'
p475
aS'http://sprg.ssl.berkeley.edu/~tohban/browser/?show=grth1+qlpcr+qlpg9+qli02+qli03+qli04+synff&date=20120708&time=173135'
p476
aS'http://sprg.ssl.berkeley.edu/~tohban/browser/?show=grth1+qlpcr+qlpg9+qli02+qli03+qli04+synff&date=20120709&time=230425'
p477
aS'http://sprg.ssl.berkeley.edu/~tohban/browser/?show=grth1+qlpcr+qlpg9+qli02+qli03+qli04+synff&date=20120719&time=051001'
p478
aS'http://sprg.ssl.berkeley.edu/~tohban/browser/?show=grth1+qlpcr+qlpg9+qli02+qli03+qli04+synff&date=20120912&time=061007'
p479
aS'http://sprg.ssl.berkeley.edu/~tohban/browser/?show=grth1+qlpcr+qlpg9+qli02+qli03+qli04+synff&date=20120912&time=111007'
p480
aS'http://sprg.ssl.berkeley.edu/~tohban/browser/?show=grth1+qlpcr+qlpg9+qli02+qli03+qli04+synff&date=20120917&time=061745'
p481
aS'http://sprg.ssl.berkeley.edu/~tohban/browser/?show=grth1+qlpcr+qlpg9+qli02+qli03+qli04+synff&date=20121017&time=075416'
p482
aS'http://sprg.ssl.berkeley.edu/~tohban/browser/?show=grth1+qlpcr+qlpg9+qli02+qli03+qli04+synff&date=20121020&time=180740'
p483
aS'http://sprg.ssl.berkeley.edu/~tohban/browser/?show=grth1+qlpcr+qlpg9+qli02+qli03+qli04+synff&date=20121021&time=052805'
p484
aS'http://sprg.ssl.berkeley.edu/~tohban/browser/?show=grth1+qlpcr+qlpg9+qli02+qli03+qli04+synff&date=20121107&time=130136'
p485
aS'http://sprg.ssl.berkeley.edu/~tohban/browser/?show=grth1+qlpcr+qlpg9+qli02+qli03+qli04+synff&date=20130418&time=180716'
p486
aS'http://sprg.ssl.berkeley.edu/~tohban/browser/?show=grth1+qlpcr+qlpg9+qli02+qli03+qli04+synff&date=20130427&time=104949'
p487
aS'http://sprg.ssl.berkeley.edu/~tohban/browser/?show=grth1+qlpcr+qlpg9+qli02+qli03+qli04+synff&date=20130427&time=150949'
p488
aS'http://sprg.ssl.berkeley.edu/~tohban/browser/?show=grth1+qlpcr+qlpg9+qli02+qli03+qli04+synff&date=20130509&time=163621'
p489
asS'XRS_files'
p490
(lp491
S'xrs2007150'
p492
aS'xrs2010307'
p493
aS'xrs2011264'
p494
aS'xrs2011268'
p495
aS'xrs2012083'
p496
aS'xrs2012146'
p497
aS'xrs2012177'
p498
aS'xrs2012190'
p499
aS'xrs2012191'
p500
aS'xrs2012201'
p501
aS'xrs2012256'
p502
aS'xrs2012256'
p503
aS'xrs2012261'
p504
aS'xrs2012291'
p505
aS'xrs2012294'
p506
aS'xrs2012295'
p507
aS'xrs2012312'
p508
aS'xrs2013108'
p509
aS'xrs2013117'
p510
aS'xrs2013117'
p511
aS'xrs2013129'
p512
assS'ID'
p513
(lp514
I7053005
aI10110321
aI110921100
aI11092521
aI12032321
aI12052537
aI12062521
aI12070855
aI12070965
aI12071911
aI12091251
aI12091224
aI12091702
aI12101714
aI12102024
aI12102107
aI12110717
aI13041825
aI13042736
aI13042748
aI13050933
asb.