ccopy_reg
_reconstructor
p0
(cpandas.core.series
Series
p1
c__builtin__
object
p2
Ntp3
Rp4
(dp5
S'_metadata'
p6
(lp7
S'name'
p8
asS'_data'
p9
g0
(cpandas.core.internals
SingleBlockManager
p10
g2
Ntp11
Rp12
((lp13
cpandas.indexes.base
_new_Index
p14
(cpandas.indexes.range
RangeIndex
p15
(dp16
S'start'
p17
I0
sS'step'
p18
I1
sS'stop'
p19
I216
sg8
Nstp20
Rp21
a(lp22
cnumpy.core.multiarray
_reconstruct
p23
(cnumpy
ndarray
p24
(I0
tp25
S'b'
p26
tp27
Rp28
(I1
(I216
tp29
cnumpy
dtype
p30
(S'O8'
p31
I0
I1
tp32
Rp33
(I3
S'|'
p34
NNNI-1
I-1
I63
tp35
bI00
(lp36
S'/xrs2007150'
p37
aS'/xrs2007153'
p38
aS'/xrs2007154'
p39
aS'/xrs2007191'
p40
aS'/xrs2010037'
p41
aS'/xrs2010039'
p42
aS'/xrs2010307'
p43
aS'/xrs2010310'
p44
aS'/xrs2011045'
p45
aS'/xrs2011045'
p46
aS'/xrs2011045'
p47
aS'/xrs2011050'
p48
aS'/xrs2011050'
p49
aS'/xrs2011050'
p50
aS'/xrs2011050'
p51
aS'/xrs2011055'
p52
aS'/xrs2011065'
p53
aS'/xrs2011106'
p54
aS'/xrs2011112'
p55
aS'/xrs2011112'
p56
aS'/xrs2011209'
p57
aS'/xrs2011220'
p58
aS'/xrs2011221'
p59
aS'/xrs2011221'
p60
aS'/xrs2011253'
p61
aS'/xrs2011256'
p62
aS'/xrs2011259'
p63
aS'/xrs2011262'
p64
aS'/xrs2011263'
p65
aS'/xrs2011263'
p66
aS'/xrs2011264'
p67
aS'/xrs2011268'
p68
aS'/xrs2011268'
p69
aS'/xrs2011268'
p70
aS'/xrs2011268'
p71
aS'/xrs2011268'
p72
aS'/xrs2011268'
p73
aS'/xrs2011268'
p74
aS'/xrs2011268'
p75
aS'/xrs2011268'
p76
aS'/xrs2011268'
p77
aS'/xrs2011268'
p78
aS'/xrs2011268'
p79
aS'/xrs2011272'
p80
aS'/xrs2011273'
p81
aS'/xrs2011273'
p82
aS'/xrs2011290'
p83
aS'/xrs2011290'
p84
aS'/xrs2011307'
p85
aS'/xrs2011310'
p86
aS'/xrs2011319'
p87
aS'/xrs2011347'
p88
aS'/xrs2011359'
p89
aS'/xrs2011359'
p90
aS'/xrs2011359'
p91
aS'/xrs2011360'
p92
aS'/xrs2011361'
p93
aS'/xrs2011364'
p94
aS'/xrs2011364'
p95
aS'/xrs2012011'
p96
aS'/xrs2012016'
p97
aS'/xrs2012073'
p98
aS'/xrs2012083'
p99
aS'/xrs2012083'
p100
aS'/xrs2012083'
p101
aS'/xrs2012083'
p102
aS'/xrs2012118'
p103
aS'/xrs2012128'
p104
aS'/xrs2012134'
p105
aS'/xrs2012146'
p106
aS'/xrs2012177'
p107
aS'/xrs2012177'
p108
aS'/xrs2012181'
p109
aS'/xrs2012181'
p110
aS'/xrs2012181'
p111
aS'/xrs2012183'
p112
aS'/xrs2012183'
p113
aS'/xrs2012183'
p114
aS'/xrs2012183'
p115
aS'/xrs2012190'
p116
aS'/xrs2012190'
p117
aS'/xrs2012190'
p118
aS'/xrs2012190'
p119
aS'/xrs2012191'
p120
aS'/xrs2012191'
p121
aS'/xrs2012192'
p122
aS'/xrs2012192'
p123
aS'/xrs2012192'
p124
aS'/xrs2012192'
p125
aS'/xrs2012192'
p126
aS'/xrs2012192'
p127
aS'/xrs2012192'
p128
aS'/xrs2012192'
p129
aS'/xrs2012192'
p130
aS'/xrs2012192'
p131
aS'/xrs2012198'
p132
aS'/xrs2012199'
p133
aS'/xrs2012199'
p134
aS'/xrs2012199'
p135
aS'/xrs2012199'
p136
aS'/xrs2012199'
p137
aS'/xrs2012199'
p138
aS'/xrs2012199'
p139
aS'/xrs2012201'
p140
aS'/xrs2012206'
p141
aS'/xrs2012209'
p142
aS'/xrs2012210'
p143
aS'/xrs2012211'
p144
aS'/xrs2012212'
p145
aS'/xrs2012212'
p146
aS'/xrs2012212'
p147
aS'/xrs2012213'
p148
aS'/xrs2012222'
p149
aS'/xrs2012222'
p150
aS'/xrs2012223'
p151
aS'/xrs2012223'
p152
aS'/xrs2012224'
p153
aS'/xrs2012232'
p154
aS'/xrs2012245'
p155
aS'/xrs2012245'
p156
aS'/xrs2012245'
p157
aS'/xrs2012250'
p158
aS'/xrs2012250'
p159
aS'/xrs2012251'
p160
aS'/xrs2012256'
p161
aS'/xrs2012256'
p162
aS'/xrs2012256'
p163
aS'/xrs2012256'
p164
aS'/xrs2012261'
p165
aS'/xrs2012261'
p166
aS'/xrs2012274'
p167
aS'/xrs2012274'
p168
aS'/xrs2012275'
p169
aS'/xrs2012281'
p170
aS'/xrs2012281'
p171
aS'/xrs2012289'
p172
aS'/xrs2012291'
p173
aS'/xrs2012293'
p174
aS'/xrs2012293'
p175
aS'/xrs2012294'
p176
aS'/xrs2012295'
p177
aS'/xrs2012295'
p178
aS'/xrs2012295'
p179
aS'/xrs2012295'
p180
aS'/xrs2012295'
p181
aS'/xrs2012296'
p182
aS'/xrs2012296'
p183
aS'/xrs2012296'
p184
aS'/xrs2012296'
p185
aS'/xrs2012297'
p186
aS'/xrs2012297'
p187
aS'/xrs2012312'
p188
aS'/xrs2012312'
p189
aS'/xrs2012312'
p190
aS'/xrs2012312'
p191
aS'/xrs2012316'
p192
aS'/xrs2012318'
p193
aS'/xrs2012320'
p194
aS'/xrs2012320'
p195
aS'/xrs2012323'
p196
aS'/xrs2012325'
p197
aS'/xrs2012325'
p198
aS'/xrs2012326'
p199
aS'/xrs2012326'
p200
aS'/xrs2012326'
p201
aS'/xrs2012332'
p202
aS'/xrs2012332'
p203
aS'/xrs2012333'
p204
aS'/xrs2012333'
p205
aS'/xrs2012334'
p206
aS'/xrs2013009'
p207
aS'/xrs2013074'
p208
aS'/xrs2013074'
p209
aS'/xrs2013077'
p210
aS'/xrs2013077'
p211
aS'/xrs2013079'
p212
aS'/xrs2013079'
p213
aS'/xrs2013101'
p214
aS'/xrs2013101'
p215
aS'/xrs2013101'
p216
aS'/xrs2013102'
p217
aS'/xrs2013108'
p218
aS'/xrs2013112'
p219
aS'/xrs2013113'
p220
aS'/xrs2013115'
p221
aS'/xrs2013115'
p222
aS'/xrs2013116'
p223
aS'/xrs2013116'
p224
aS'/xrs2013117'
p225
aS'/xrs2013117'
p226
aS'/xrs2013117'
p227
aS'/xrs2013119'
p228
aS'/xrs2013119'
p229
aS'/xrs2013120'
p230
aS'/xrs2013121'
p231
aS'/xrs2013121'
p232
aS'/xrs2013123'
p233
aS'/xrs2013124'
p234
aS'/xrs2013129'
p235
aS'/xrs2013136'
p236
aS'/xrs2013138'
p237
aS'/xrs2013138'
p238
aS'/xrs2013138'
p239
aS'/xrs2013139'
p240
aS'/xrs2013139'
p241
aS'/xrs2013139'
p242
aS'/xrs2013142'
p243
aS'/xrs2013143'
p244
aS'/xrs2013151'
p245
aS'/xrs2013154'
p246
aS'/xrs2013154'
p247
aS'/xrs2013170'
p248
aS'/xrs2013170'
p249
aS'/xrs2013179'
p250
aS'/xrs2013184'
p251
aFnan
atp252
ba(lp253
g14
(g15
(dp254
g17
I0
sg18
I1
sg19
I216
sg8
Nstp255
Rp256
a(dp257
S'0.14.1'
p258
(dp259
S'axes'
p260
g13
sS'blocks'
p261
(lp262
(dp263
S'mgr_locs'
p264
c__builtin__
slice
p265
(I0
I216
I1
tp266
Rp267
sS'values'
p268
g28
sasstp269
bsS'_typ'
p270
S'series'
p271
sg8
S'XRS_files'
p272
sb.